(dp0
S'seston'
p1
I84800
sS'four'
p2
I99243
sS'hanging'
p3
I3109
sS'eligible'
p4
I15469
sS'lore'
p5
I22087
sS'deli'
p6
I17786
sS'hdtv'
p7
I102235
sS'bringing'
p8
I103572
sS'hasselfree'
p9
I54701
sS'disturb'
p10
I39302
sS'wooden'
p11
I69837
sS'clientele'
p12
I11037
sS'commented'
p13
I61175
sS'specially'
p14
I16571
sS'tired'
p15
I107555
sS'preface'
p16
I59107
sS'bacon'
p17
I36549
sS'scraper'
p18
I88384
sS'elegant'
p19
I109493
sS'second'
p20
I105057
sS'279'
p21
I36612
sS'sterile'
p22
I53257
sS'patnership'
p23
I103402
sS'lucious'
p24
I87143
sS'relieving'
p25
I103019
sS'cooking'
p26
I89301
sS'contributed'
p27
I102782
sS'bonuses'
p28
I88925
sS'here'
p29
I108763
sS'reported'
p30
I48812
sS'china'
p31
I83369
sS'kids'
p32
I107134
sS'k'
p33
I68546
sS'reports'
p34
I48157
sS'golden'
p35
I78887
sS'projection'
p36
I4603
sS'explained'
p37
I77846
sS'replace'
p38
I24337
sS'brought'
p39
I102708
sS'unit'
p40
I78847
sS'spoke'
p41
I56190
sS'music'
p42
I95759
sS'therefore'
p43
I88332
sS'until'
p44
I100257
sS'relax'
p45
I103726
sS'brings'
p46
I59600
sS'99'
p47
I52968
sS'glass'
p48
I89309
sS'91'
p49
I25655
sS'90'
p50
I54093
sS'93'
p51
I30096
sS'hold'
p52
I59656
sS'95'
p53
I52634
sS'tastefully'
p54
I80267
sS'locked'
p55
I98263
sS'example'
p56
I72736
sS'foodie'
p57
I27278
sS'wand'
p58
I38769
sS'hyatt'
p59
I85392
sS'household'
p60
I108463
sS'organized'
p61
I69968
sS'currency'
p62
I104442
sS'reviewing'
p63
I65785
sS'want'
p64
I109131
sS'absolute'
p65
I102284
sS'travel'
p66
I108794
sS'feature'
p67
I106163
sS'revisit'
p68
I60423
sS'machine'
p69
I105797
sS'groaner'
p70
I1531
sS'hot'
p71
I102139
sS'hop'
p72
I56158
sS'place'
p73
I107664
sS'pacage'
p74
I34057
sS'terrycloth'
p75
I10210
sS'beauty'
p76
I106498
sS'cuisine'
p77
I108941
sS'wrong'
p78
I105924
sS'beauti'
p79
I78830
sS'types'
p80
I38253
sS'colorfully'
p81
I8679
sS'effective'
p82
I57821
sS'[--].'
p83
I17784
sS'wink'
p84
I82752
sS'18th'
p85
I28939
sS'keeps'
p86
I20550
sS'wind'
p87
I96180
sS'wine'
p88
I108168
sS'welcomed'
p89
I106408
sS'vary'
p90
I46586
sS'murals'
p91
I19215
sS'rewarded'
p92
I8588
sS'welcomes'
p93
I60024
sS'fit'
p94
I97773
sS'backpack'
p95
I16530
sS'hidden'
p96
I105079
sS'fin'
p97
I58961
sS'easier'
p98
I68656
sS'duvet'
p99
I43142
sS'slate'
p100
I100597
sS'vouchers'
p101
I32631
sS'interrupt'
p102
I57384
sS'sixteen'
p103
I18208
sS'silver'
p104
I87887
sS'headboard'
p105
I99038
sS'specacular'
p106
I55550
sS'accomidations'
p107
I105022
sS'spotless'
p108
I109330
sS'whim'
p109
I97508
sS'financial'
p110
I108013
sS'series'
p111
I104041
sS'bowls'
p112
I74533
sS'message'
p113
I94446
sS're'
p114
I108979
sS'disinterested'
p115
I27806
sS'assured'
p116
I66466
sS'grapes'
p117
I78969
sS'obstructing'
p118
I20284
sS'enormous'
p119
I69819
sS'ate'
p120
I104982
sS'satisfication'
p121
I90703
sS'ups'
p122
I51980
sS'shipped'
p123
I73424
sS'musicians'
p124
I72714
sS'speedy'
p125
I85954
sS'1970s'
p126
I96496
sS'reserving'
p127
I28449
sS'9pm'
p128
I62232
sS'").'
p129
I93255
sS'ouevres'
p130
I37744
sS'veggie'
p131
I57902
sS'shopped'
p132
I92383
sS'customization'
p133
I67102
sS'wasn'
p134
I107588
sS'175'
p135
I54445
sS'173'
p136
I23995
sS'170'
p137
I7970
sS'olds'
p138
I41779
sS'renovated'
p139
I100510
sS'service'
p140
I109227
sS'needed'
p141
I106097
sS'listed'
p142
I17912
sS'listen'
p143
I29028
sS'rewards'
p144
I26522
sS'geneva'
p145
I97230
sS'cocktails'
p146
I74902
sS'sofitel'
p147
I66978
sS'horrible'
p148
I32904
sS'showed'
p149
I96903
sS'tree'
p150
I82933
sS'shower'
p151
I101350
sS'shampoos'
p152
I60046
sS'feeling'
p153
I102785
sS'este'
p154
I25915
sS'apri'
p155
I19857
sS'dozen'
p156
I34077
sS'escalator'
p157
I28860
sS'person'
p158
I107077
sS'soaked'
p159
I26482
sS'gripe'
p160
I77269
sS'eagerly'
p161
I5437
sS'metallic'
p162
I27338
sS'recommended'
p163
I109168
sS'defiantly'
p164
I67483
sS'doors'
p165
I106076
sS'inlcluded'
p166
I31618
sS'shall'
p167
I71668
sS'thrilled'
p168
I62860
sS'swiss'
p169
I96238
sS'mouth'
p170
I81455
sS'addict'
p171
I99562
sS'letter'
p172
I16562
sS'stupid'
p173
I105827
sS'tech'
p174
I86374
sS'incomplete'
p175
I11303
sS'saying'
p176
I59110
sS'meetings'
p177
I108295
sS'nightstands'
p178
I15016
sS'busy'
p179
I104668
sS'layout'
p180
I103204
sS'quaint'
p181
I39748
sS'menu'
p182
I105530
sS'than'
p183
I106533
sS'theme'
p184
I27315
sS'bliss'
p185
I80138
sS'rich'
p186
I105121
sS'heartily'
p187
I95252
sS'emphatically'
p188
I60160
sS'plate'
p189
I41687
sS'nicely'
p190
I104728
sS'dipping'
p191
I39363
sS'respond'
p192
I32513
sS'traverse'
p193
I17677
sS'fair'
p194
I105762
sS'goodnight'
p195
I4426
sS'hotwire'
p196
I56832
sS'news'
p197
I18661
sS'best'
p198
I109456
sS'lots'
p199
I106748
sS'score'
p200
I76393
sS'melissa'
p201
I34712
sS'yogurt'
p202
I102685
sS'receptionists'
p203
I83695
sS'men'
p204
I103338
sS'extend'
p205
I2392
sS'smelled'
p206
I84431
sS'pity'
p207
I11870
sS'refinement'
p208
I97639
sS'adventurer'
p209
I59811
sS'heating'
p210
I103286
sS'planned'
p211
I108525
sS'hated'
p212
I31492
sS'asked'
p213
I105707
sS'30th'
p214
I68422
sS'2nd'
p215
I100273
sS'minuses'
p216
I38687
sS'250'
p217
I21380
sS'priceline'
p218
I55490
sS'windchills'
p219
I15558
sS'hues'
p220
I100370
sS'union'
p221
I47927
sS'.'
p222
I109511
sS'much'
p223
I109228
sS'stadium'
p224
I55650
sS'life'
p225
I109510
sS'recomend'
p226
I91714
sS'wish'
p227
I109082
sS'dave'
p228
I38959
sS'lift'
p229
I68121
sS'doubts'
p230
I63062
sS'onyl'
p231
I51831
sS'stepdad'
p232
I16918
sS'chill'
p233
I54357
sS'contemplated'
p234
I99056
sS'professionally'
p235
I10990
sS'elaborate'
p236
I104181
sS'tzu'
p237
I68947
sS'player'
p238
I25004
sS'upscale'
p239
I103436
sS'conditioner'
p240
I61232
sS'doorman'
p241
I89987
sS'memorial'
p242
I48700
sS'things'
p243
I108468
sS'split'
p244
I13466
sS'clubing'
p245
I30679
sS'toasted'
p246
I17793
sS'european'
p247
I102689
sS'fairly'
p248
I49447
sS'tops'
p249
I107693
sS'ownership'
p250
I68751
sS'supper'
p251
I66137
sS'10yo'
p252
I32172
sS'echoed'
p253
I3692
sS'burgers'
p254
I95614
sS'nachos'
p255
I84446
sS'corporate'
p256
I108032
sS'sleepy'
p257
I82594
sS'portrayed'
p258
I82346
sS'previous'
p259
I109179
sS'ease'
p260
I104425
sS'had'
p261
I109487
sS'ideal'
p262
I107402
sS'easy'
p263
I106474
sS'has'
p264
I109452
sS'casually'
p265
I65259
sS'possible'
p266
I104032
sS'possibly'
p267
I97042
sS'unique'
p268
I72650
sS'desire'
p269
I82803
sS'masonic'
p270
I52553
sS'bobby'
p271
I93893
sS'remind'
p272
I108520
sS'130lb'
p273
I47828
sS'steps'
p274
I93140
sS'right'
p275
I109213
sS'old'
p276
I109072
sS'crowd'
p277
I52723
sS'people'
p278
I108801
sS'crown'
p279
I24305
sS'attendees'
p280
I27854
sS'for'
p281
I109373
sS'bottom'
p282
I42165
sS'fox'
p283
I42329
sS'individuals'
p284
I31993
sS'treadmill'
p285
I88274
sS'brailed'
p286
I103294
sS'memorable'
p287
I93277
sS'transcends'
p288
I76820
sS'thechina'
p289
I18505
sS'dollars'
p290
I98493
sS'o'
p291
I71370
sS'stoked'
p292
I69326
sS'lacked'
p293
I19001
sS'slightly'
p294
I99802
sS'raised'
p295
I62289
sS'facility'
p296
I106050
sS'marshall'
p297
I12538
sS'honeymoon'
p298
I104788
sS'son'
p299
I96482
sS'sox'
p300
I890
sS'hallo'
p301
I9788
sS'fabric'
p302
I6868
sS'waits'
p303
I30889
sS'support'
p304
I76454
sS'uncluttered'
p305
I5296
sS'definatly'
p306
I61576
sS'halls'
p307
I76898
sS'launching'
p308
I93117
sS'happy'
p309
I109185
sS'perfumes'
p310
I84364
sS'offer'
p311
I108274
sS'canopies'
p312
I40609
sS'inside'
p313
I102472
sS'nicest'
p314
I107189
sS'150'
p315
I56424
sS'later'
p316
I99073
sS'155'
p317
I31927
sS'minibar'
p318
I45155
sS'bathrobe'
p319
I16800
sS'restorative'
p320
I5362
sS'soothe'
p321
I80358
sS'proves'
p322
I56799
sS"'."
p323
I88437
sS"',"
p324
I88519
sS'crutches'
p325
I9497
sS'floor'
p326
I103591
sS'accomodating'
p327
I70672
sS'role'
p328
I6094
sS'becuase'
p329
I63233
sS'smell'
p330
I69455
sS'roll'
p331
I19415
sS'palms'
p332
I97228
sS'ramada'
p333
I105725
sS'rollins'
p334
I8145
sS'snooze'
p335
I4289
sS'hypoallergenic'
p336
I82130
sS'pet'
p337
I102794
sS'time'
p338
I109376
sS'bfast'
p339
I8967
sS'newbie'
p340
I95239
sS':)'
p341
I94034
sS'chain'
p342
I81000
sS'reviewers'
p343
I56457
sS'ost'
p344
I51936
sS'burritos'
p345
I36562
sS'jarring'
p346
I17478
sS'skiing'
p347
I7066
sS'chair'
p348
I94147
sS'midst'
p349
I87737
sS'ballet'
p350
I72835
sS'rousing'
p351
I73247
sS'bicycles'
p352
I60320
sS'816'
p353
I34566
sS'icing'
p354
I100632
sS'choice'
p355
I102933
sS'servicing'
p356
I36885
sS'stays'
p357
I96640
sS'exact'
p358
I25014
sS'minute'
p359
I101603
sS'discovered'
p360
I89990
sS'staffs'
p361
I66726
sS'leave'
p362
I108527
sS'solved'
p363
I10857
sS'settle'
p364
I108972
sS'subway'
p365
I37844
sS'team'
p366
I71542
sS'loads'
p367
I25234
sS'portioned'
p368
I85083
sS'insignificant'
p369
I77421
sS'steaks'
p370
I94770
sS'shirts'
p371
I74727
sS'cleanliness'
p372
I103352
sS'celebrated'
p373
I41958
sS'current'
p374
I69733
sS'300'
p375
I56679
sS'bargin'
p376
I46732
sS'falling'
p377
I85420
sS'ground'
p378
I23012
sS'understanding'
p379
I73486
sS'snack'
p380
I73006
sS'yards'
p381
I35379
sS'address'
p382
I44515
sS'alone'
p383
I108435
sS'along'
p384
I102961
sS'passengers'
p385
I29136
sS'brilliant'
p386
I1849
sS'extememly'
p387
I70669
sS'wherever'
p388
I18029
sS'accomplished'
p389
I14181
sS'chagall'
p390
I88517
sS'carpets'
p391
I78869
sS'love'
p392
I107325
sS'prefer'
p393
I90660
sS'lineds'
p394
I22913
sS'fake'
p395
I95345
sS'omelets'
p396
I36560
sS'sunbathing'
p397
I86083
sS'working'
p398
I105890
sS'positive'
p399
I99821
sS'opposed'
p400
I62076
sS'wondering'
p401
I72681
sS'scope'
p402
I78282
sS'wicked'
p403
I48234
sS'afford'
p404
I13945
sS'everywhere'
p405
I82879
sS'valued'
p406
I88899
sS'deserved'
p407
I105625
sS'originally'
p408
I104381
sS'printing'
p409
I29080
sS'stature'
p410
I94050
sS'following'
p411
I32223
sS'admired'
p412
I18132
sS'stetson'
p413
I85073
sS'awesome'
p414
I108678
sS'induldge'
p415
I102117
sS'graduation'
p416
I86758
sS'allowed'
p417
I108324
sS'stole'
p418
I95430
sS'evidently'
p419
I29590
sS'winter'
p420
I78698
sS'thanking'
p421
I28216
sS'coleman'
p422
I25824
sS'laundry'
p423
I103272
sS'travelzoos'
p424
I29748
sS'spot'
p425
I109152
sS'latte'
p426
I10949
sS'date'
p427
I98266
sS'such'
p428
I107721
sS'prides'
p429
I103321
sS'filthy'
p430
I78794
sS'stress'
p431
I105983
sS'natural'
p432
I60083
sS'wheelchair'
p433
I108443
sS'st'
p434
I103810
sS'darkened'
p435
I22198
sS'so'
p436
I109342
sS'snowed'
p437
I25258
sS'pulled'
p438
I20409
sS'years'
p439
I107114
sS'course'
p440
I99972
sS'lovelies'
p441
I4201
sS'splurge'
p442
I82427
sS'solace'
p443
I70852
sS'how'
p444
I108495
sS'cleanest'
p445
I93633
sS'bagels'
p446
I39079
sS'troubles'
p447
I54456
sS'louisville'
p448
I61596
sS'celebrate'
p449
I107710
sS'decades'
p450
I2913
sS'instantly'
p451
I92962
sS'matches'
p452
I106031
sS'attentiveness'
p453
I70643
sS'compelled'
p454
I86502
sS'arriving'
p455
I73801
sS'colleagues'
p456
I91992
sS'maintaining'
p457
I72069
sS'matched'
p458
I4710
sS'hancock'
p459
I51770
sS'didn'
p460
I109222
sS'dispite'
p461
I2947
sS'square'
p462
I93523
sS'rockability'
p463
I72441
sS'entering'
p464
I89596
sS'salads'
p465
I31418
sS'contained'
p466
I52583
sS'cobb'
p467
I31439
sS'internet'
p468
I107544
sS'suggesting'
p469
I29941
sS'formula'
p470
I33724
sS'complimented'
p471
I100379
sS'palatial'
p472
I39786
sS'million'
p473
I98745
sS'seventh'
p474
I20973
sS'quite'
p475
I108062
sS'besides'
p476
I71982
sS'grandma'
p477
I37960
sS'training'
p478
I102617
sS'tasting'
p479
I47960
sS'massive'
p480
I78237
sS'routes'
p481
I77849
sS'saving'
p482
I50444
sS'spoken'
p483
I73328
sS'one'
p484
I109318
sS'mignon'
p485
I94780
sS'open'
p486
I103246
sS'city'
p487
I108755
sS'bite'
p488
I94547
sS'twenties'
p489
I53897
sS'stuffed'
p490
I66847
sS'definitly'
p491
I97058
sS'shoppers'
p492
I9285
sS'flatscreen'
p493
I35457
sS'gratus'
p494
I3723
sS'ridiculous'
p495
I45154
sS'boyfriend'
p496
I103698
sS'scrumptious'
p497
I105551
sS'summary'
p498
I99127
sS'future'
p499
I90757
sS'builiding'
p500
I31641
sS'glossy'
p501
I19043
sS'individualized'
p502
I102575
sS'wandering'
p503
I100002
sS'tasted'
p504
I94773
sS'nicer'
p505
I105709
sS'parking'
p506
I105239
sS'turned'
p507
I105858
sS'locations'
p508
I90677
sS'sad'
p509
I59353
sS'say'
p510
I108664
sS'rained'
p511
I34996
sS'saw'
p512
I104205
sS'sat'
p513
I85610
sS'aside'
p514
I82460
sS'zoo'
p515
I107418
sS'note'
p516
I54290
sS'take'
p517
I108531
sS'wanting'
p518
I103954
sS'relaxed'
p519
I89464
sS'opposite'
p520
I52401
sS'knew'
p521
I108628
sS'staffed'
p522
I108823
sS'buffet'
p523
I90627
sS'bagpacks'
p524
I86902
sS'printed'
p525
I16572
sS'average'
p526
I95714
sS'drive'
p527
I104309
sS'bady'
p528
I693
sS'sodas'
p529
I1375
sS'backdrop'
p530
I90954
sS'accented'
p531
I10885
sS'walking'
p532
I108023
sS'merit'
p533
I60378
sS'bright'
p534
I98796
sS'scarce'
p535
I102848
sS'slow'
p536
I97965
sS'transact'
p537
I104430
sS'going'
p538
I109369
sS'equipped'
p539
I103852
sS'robe'
p540
I100786
sS'caroline'
p541
I4023
sS'beatles'
p542
I73362
sS'assistant'
p543
I102824
sS'freezing'
p544
I44738
sS'awaiting'
p545
I65280
sS'prime'
p546
I108948
sS'breaksfast'
p547
I23883
sS'borrow'
p548
I102332
sS'worried'
p549
I105844
sS'skyline'
p550
I97364
sS'roger'
p551
I10218
sS'where'
p552
I106622
sS'sirens'
p553
I45488
sS'espn'
p554
I55587
sS'intoxicating'
p555
I98554
sS'sites'
p556
I99750
sS'teacup'
p557
I70735
sS'refreshed'
p558
I98514
sS'decks'
p559
I87371
sS'jobs'
p560
I85533
sS'screen'
p561
I104113
sS'subroofer'
p562
I24622
sS'many'
p563
I109145
sS'millionaire'
p564
I99916
sS's'
p565
I109266
sS'mani'
p566
I98472
sS'grooming'
p567
I68958
sS'fix'
p568
I99567
sS'yearly'
p569
I65341
sS'twin'
p570
I1842
sS'boat'
p571
I102093
sS'caring'
p572
I106296
sS'west'
p573
I61962
sS'vacation'
p574
I108568
sS'breath'
p575
I107906
sS'combined'
p576
I108421
sS'reflective'
p577
I26502
sS'wants'
p578
I84159
sS'photos'
p579
I82068
sS'former'
p580
I44092
sS'felling'
p581
I88399
sS'easyer'
p582
I44837
sS'resturant'
p583
I65542
sS'newspaper'
p584
I87275
sS'situation'
p585
I75918
sS'penthouse'
p586
I97211
sS'ive'
p587
I101882
sS'shepard'
p588
I72888
sS'candace'
p589
I81129
sS'ribeye'
p590
I87876
sS'technology'
p591
I17994
sS'surveillance'
p592
I17621
sS'sterling'
p593
I102767
sS'wired'
p594
I79667
sS'costs'
p595
I104606
sS'trains'
p596
I48508
sS'summer'
p597
I109180
sS'214'
p598
I35169
sS'(~'
p599
I3544
sS'being'
p600
I108254
sS'rest'
p601
I89829
sS'219'
p602
I9529
sS'steamer'
p603
I108808
sS'aspects'
p604
I33671
sS'around'
p605
I107581
sS'dark'
p606
I78301
sS'traffic'
p607
I76905
sS'preference'
p608
I28087
sS'world'
p609
I108857
sS'(&'
p610
I18969
sS'($'
p611
I56060
sS'60'
p612
I54118
sS'souvenirs'
p613
I82453
sS'discarded'
p614
I24997
sS'inter'
p615
I105007
sS'kennel'
p616
I74499
sS'seating'
p617
I28571
sS'helpfull'
p618
I105718
sS'tvs'
p619
I91522
sS'sunbeds'
p620
I33884
sS'elements'
p621
I11476
sS'divine'
p622
I81743
sS'thinks'
p623
I17237
sS'memories'
p624
I66180
sS'noon'
p625
I37601
sS'nook'
p626
I3663
sS'exit'
p627
I146
sS'23rd'
p628
I34936
sS'tubs'
p629
I2046
sS'power'
p630
I12072
sS'intimate'
p631
I19393
sS'throwback'
p632
I108788
sS'luxurious'
p633
I108431
sS'stone'
p634
I102140
sS'origins'
p635
I1594
sS'package'
p636
I105272
sS'industry'
p637
I88621
sS'favorite'
p638
I107333
sS'meal'
p639
I106594
sS'neighbor'
p640
I74507
sS'act'
p641
I5386
sS'slighty'
p642
I18915
sS'legged'
p643
I74557
sS'hairdryers'
p644
I108473
sS'homeless'
p645
I48078
sS'her'
p646
I108622
sS'hey'
p647
I30478
sS'sides'
p648
I44306
sS'sealed'
p649
I77166
sS'bubble'
p650
I46217
sS'recommends'
p651
I37000
sS'complete'
p652
I105647
sS'adequet'
p653
I35915
sS'with'
p654
I109321
sS'buying'
p655
I90565
sS'handsome'
p656
I75693
sS'pull'
p657
I40060
sS'rush'
p658
I76013
sS'october'
p659
I56915
sS'hooray'
p660
I16712
sS'dirty'
p661
I37258
sS'trips'
p662
I98213
sS'detailed'
p663
I8193
sS'gone'
p664
I102982
sS'ac'
p665
I78844
sS'ae'
p666
I16416
sS'ad'
p667
I43620
sS'johnny'
p668
I99349
sS'exhausted'
p669
I93762
sS'certain'
p670
I100017
sS'am'
p671
I106035
sS'laminated'
p672
I72980
sS'an'
p673
I108776
sS'as'
p674
I108343
sS'au'
p675
I10271
sS'at'
p676
I109489
sS'av'
p677
I25410
sS'44in'
p678
I24005
sS'tranquil'
p679
I80126
sS'cream'
p680
I39081
sS'yoga'
p681
I68219
sS'ideally'
p682
I10923
sS'novice'
p683
I104199
sS'tight'
p684
I84626
sS'unparalleled'
p685
I80120
sS'puppy'
p686
I54527
sS'gifts'
p687
I72552
sS'terry'
p688
I106247
sS'tricky'
p689
I35575
sS'2009'
p690
I36335
sS'snagged'
p691
I107851
sS'penninsula'
p692
I3763
sS'waived'
p693
I26544
sS'having'
p694
I106046
sS'mass'
p695
I104357
sS'sensibility'
p696
I11115
sS'original'
p697
I108327
sS'waiver'
p698
I70750
sS'consider'
p699
I65749
sS'caused'
p700
I90013
sS'beware'
p701
I12971
sS'tours'
p702
I102094
sS'careful'
p703
I68108
sS'tv'
p704
I103292
sS'jucie'
p705
I50713
sS'to'
p706
I109500
sS'th'
p707
I107131
sS'dressing'
p708
I26552
sS'smile'
p709
I94205
sS'midwest'
p710
I22090
sS'ta'
p711
I51265
sS'case'
p712
I78814
sS'appointment'
p713
I86032
sS'returned'
p714
I105408
sS'checkin'
p715
I54458
sS'24th'
p716
I42977
sS'condition'
p717
I106285
sS'hooking'
p718
I98096
sS'cable'
p719
I70363
sS'laying'
p720
I86207
sS'large'
p721
I106770
sS'upmost'
p722
I88029
sS'harry'
p723
I103751
sS'small'
p724
I87138
sS'quicker'
p725
I1859
sS'191'
p726
I6593
sS'past'
p727
I100277
sS'displays'
p728
I66280
sS'pass'
p729
I93175
sS'situated'
p730
I99146
sS'bridgestone'
p731
I29644
sS'clock'
p732
I76735
sS'section'
p733
I28173
sS'seemed'
p734
I99303
sS'method'
p735
I45066
sS'contrast'
p736
I64829
sS'hasn'
p737
I80947
sS'full'
p738
I105533
sS'hash'
p739
I36553
sS'hours'
p740
I104943
sS'november'
p741
I56918
sS'osco'
p742
I36975
sS'satayed'
p743
I57104
sS'experience'
p744
I109138
sS'pics'
p745
I49628
sS'prior'
p746
I45168
sS'social'
p747
I66540
sS'action'
p748
I92868
sS'via'
p749
I86090
sS'followed'
p750
I105601
sS'strolling'
p751
I53114
sS'vip'
p752
I100703
sS'indoors'
p753
I35048
sS'pulls'
p754
I106942
sS'select'
p755
I103843
sS'poodle'
p756
I102712
sS'sitter'
p757
I98914
sS'6'
p758
I75019
sS'more'
p759
I108430
sS'door'
p760
I108331
sS'alcove'
p761
I11012
sS'company'
p762
I104008
sS'corrected'
p763
I39325
sS'couples'
p764
I96007
sS'keeping'
p765
I87084
sS'science'
p766
I88619
sS'mall'
p767
I37337
sS'sent'
p768
I74933
sS'morgan'
p769
I43310
sS'learn'
p770
I100418
sS'knocked'
p771
I39289
sS'beautiful'
p772
I109203
sS'prompt'
p773
I105780
sS'stated'
p774
I53699
sS'suggestions'
p775
I87457
sS'allegro'
p776
I100658
sS'salty'
p777
I47092
sS'sense'
p778
I88208
sS'lucked'
p779
I56169
sS'information'
p780
I76336
sS'ihome'
p781
I85237
sS'disturbed'
p782
I29335
sS'freshly'
p783
I36565
sS'browns'
p784
I36554
sS'waved'
p785
I31645
sS'seoul'
p786
I6087
sS'waitstaff'
p787
I44906
sS'treatments'
p788
I102123
sS'priviliges'
p789
I39658
sS'plane'
p790
I33774
sS'conveniences'
p791
I85727
sS'authentic'
p792
I79858
sS'register'
p793
I45973
sS'patio'
p794
I13064
sS'rottweiler'
p795
I73898
sS'adorned'
p796
I77988
sS'mexican'
p797
I36588
sS'reminded'
p798
I103755
sS'trade'
p799
I97093
sS'resorts'
p800
I79733
sS'attitude'
p801
I16231
sS'paper'
p802
I89321
sS'scott'
p803
I19878
sS'goldish'
p804
I7737
sS'signs'
p805
I15423
sS'smiling'
p806
I105715
sS'its'
p807
I106599
sS'bummed'
p808
I80522
sS'shopper'
p809
I61882
sS'2hours'
p810
I24052
sS'nifty'
p811
I11090
sS'travelling'
p812
I104418
sS'colleague'
p813
I97619
sS'skipped'
p814
I43049
sS'recreation'
p815
I107088
sS'respectful'
p816
I80622
sS'turndown'
p817
I33455
sS'everytime'
p818
I24507
sS'always'
p819
I106885
sS'piping'
p820
I19978
sS'found'
p821
I105483
sS'weeknd'
p822
I69400
sS'upstairs'
p823
I18104
sS'girlish'
p824
I68266
sS'exorbitant'
p825
I58773
sS'blues'
p826
I101494
sS'really'
p827
I109025
sS'inquired'
p828
I1763
sS'travellodge'
p829
I14982
sS'missed'
p830
I101653
sS'mattered'
p831
I98942
sS'research'
p832
I106727
sS'hangers'
p833
I31041
sS'bubba'
p834
I42133
sS'belief'
p835
I70956
sS'1920s'
p836
I52552
sS'sparked'
p837
I102028
sS'pitfalls'
p838
I53732
sS'conditioning'
p839
I103270
sS'imagine'
p840
I108800
sS'definition'
p841
I63420
sS'owners'
p842
I54552
sS'complimentarily'
p843
I6205
sS'w'
p844
I103808
sS'testament'
p845
I98997
sS'castle'
p846
I106493
sS'major'
p847
I108198
sS'number'
p848
I105261
sS'florist'
p849
I79535
sS'ironing'
p850
I108475
sS'guess'
p851
I79013
sS'heads'
p852
I63850
sS'guest'
p853
I108593
sS'jet'
p854
I102810
sS'benedict'
p855
I94033
sS'moderately'
p856
I100525
sS'litlle'
p857
I23811
sS'warmly'
p858
I74836
sS'immediate'
p859
I106628
sS'appreciation'
p860
I60695
sS'stairs'
p861
I62276
sS'grace'
p862
I84518
sS'aaa'
p863
I100423
sS'getaway'
p864
I108397
sS'taxis'
p865
I43520
sS'remembers'
p866
I36229
sS'beforehand'
p867
I60732
sS'swanky'
p868
I5471
sS'pedestrian'
p869
I53259
sS'odd'
p870
I54120
sS'self'
p871
I90276
sS'michican'
p872
I36503
sS'also'
p873
I109093
sS'snooty'
p874
I103478
sS'play'
p875
I97707
sS'busby'
p876
I53323
sS'blackboard'
p877
I47851
sS'affordability'
p878
I90423
sS'experince'
p879
I75003
sS'plan'
p880
I101225
sS'reward'
p881
I55004
sS'sometimes'
p882
I82416
sS'cover'
p883
I29970
sS'lounge'
p884
I107615
sS'artistic'
p885
I60370
sS'barrel'
p886
I5727
sS'gold'
p887
I80717
sS'cruises'
p888
I8198
sS'accommodations'
p889
I108594
sS'bookings'
p890
I56098
sS'session'
p891
I94448
sS'overwhelmed'
p892
I65249
sS'impact'
p893
I77147
sS'condos'
p894
I43031
sS'milennium'
p895
I53100
sS'failed'
p896
I13232
sS'factor'
p897
I104598
sS'gratis'
p898
I48905
sS'sunny'
p899
I33630
sS'donald'
p900
I1152
sS'crt'
p901
I38
sS'river'
p902
I103817
sS'insane'
p903
I52299
sS'set'
p904
I104223
sS'312'
p905
I100612
sS'316'
p906
I101102
sS'see'
p907
I107230
sS'#'
p908
I100135
sS'ritz'
p909
I5836
sS'muted'
p910
I17054
sS'movie'
p911
I102328
sS'currently'
p912
I21598
sS'1334'
p913
I16578
sS'15th'
p914
I82811
sS'knowing'
p915
I106658
sS'premises'
p916
I104448
sS'suckish'
p917
I71395
sS'incident'
p918
I4888
sS'last'
p919
I107707
sS'barely'
p920
I104124
sS'connection'
p921
I105512
sS'accomodations'
p922
I103978
sS'whole'
p923
I108908
sS'pda'
p924
I85197
sS'majesty'
p925
I72353
sS'bell'
p926
I94385
sS'angelas'
p927
I87044
sS'reccomend'
p928
I74542
sS'extented'
p929
I35626
sS'adjoining'
p930
I54255
sS'),'
p931
I102143
sS'church'
p932
I70049
sS')"'
p933
I9792
sS'suburbs'
p934
I104215
sS'extravagant'
p935
I108746
sS'firm'
p936
I89729
sS'resting'
p937
I83757
sS'fire'
p938
I46854
sS'towne'
p939
I21563
sS'representative'
p940
I32443
sS'towns'
p941
I58228
sS'packers'
p942
I91580
sS'checking'
p943
I98351
sS'straight'
p944
I103006
sS'budget'
p945
I100236
sS'forgetting'
p946
I92607
sS'concierges'
p947
I78125
sS'pressed'
p948
I83089
sS'swim'
p949
I89543
sS'arching'
p950
I105117
sS'triple'
p951
I31496
sS'beautifully'
p952
I108917
sS'funny'
p953
I69453
sS'decor'
p954
I109476
sS'maids'
p955
I97541
sS'elevated'
p956
I6525
sS'virtually'
p957
I16951
sS'friiday'
p958
I894
sS'comprehensive'
p959
I104533
sS'cigar'
p960
I46417
sS'virginia'
p961
I1656
sS'viewing'
p962
I19272
sS'levels'
p963
I40654
sS'infamous'
p964
I98048
sS'recent'
p965
I107484
sS'early'
p966
I98115
sS'picky'
p967
I90584
sS'makes'
p968
I108037
sS'picks'
p969
I64143
sS'allergenic'
p970
I87619
sS'concrete'
p971
I48171
sS'theatres'
p972
I47683
sS'detract'
p973
I14216
sS'glitz'
p974
I2878
sS'aroma'
p975
I81105
sS'lawry'
p976
I5247
sS'attractive'
p977
I45593
sS'eager'
p978
I107806
sS'location'
p979
I109273
sS'surprised'
p980
I91253
sS'emergency'
p981
I101604
sS'couple'
p982
I108394
sS'overindulgent'
p983
I89184
sS'formal'
p984
I51008
sS'd'
p985
I99624
sS'continue'
p986
I90975
sS'scape'
p987
I101046
sS'stylish'
p988
I104091
sS'veiws'
p989
I65672
sS'partying'
p990
I3612
sS'sheraton'
p991
I95538
sS'spring'
p992
I69611
sS'palm'
p993
I97384
sS'sight'
p994
I107514
sS'fortney'
p995
I43317
sS'be'
p996
I109454
sS'bf'
p997
I31567
sS'moterate'
p998
I48896
sS'nowhere'
p999
I95523
sS'santa'
p1000
I46179
sS'skyrise'
p1001
I43030
sS'by'
p1002
I109447
sS'anything'
p1003
I102266
sS'exaggerated'
p1004
I48165
sS'deserves'
p1005
I89589
sS'timerland'
p1006
I44774
sS'garbage'
p1007
I105765
sS'hometown'
p1008
I14878
sS'into'
p1009
I109402
sS'servers'
p1010
I91093
sS'sightseeing'
p1011
I102083
sS'retrieving'
p1012
I54577
sS'spending'
p1013
I100489
sS'suit'
p1014
I106733
sS':'
p1015
I103827
sS'strives'
p1016
I71311
sS'elsewhere'
p1017
I108504
sS'atop'
p1018
I68193
sS'barman'
p1019
I4381
sS'atlantic'
p1020
I54734
sS'line'
p1021
I64173
sS'posted'
p1022
I48272
sS'nieces'
p1023
I45928
sS'redeemed'
p1024
I54999
sS'magnificant'
p1025
I69083
sS'up'
p1026
I108345
sS'us'
p1027
I109121
sS'customers'
p1028
I90500
sS'uk'
p1029
I35333
sS'sofabed'
p1030
I40718
sS'storing'
p1031
I35641
sS'influence'
p1032
I41017
sS'diverse'
p1033
I90449
sS'graceful'
p1034
I88756
sS'overcrowed'
p1035
I15598
sS'definitely'
p1036
I109159
sS'actors'
p1037
I73756
sS'trouser'
p1038
I52646
sS'meals'
p1039
I103840
sS'ago'
p1040
I103486
sS'valuables'
p1041
I84238
sS'age'
p1042
I14211
sS'walked'
p1043
I109401
sS'beverage'
p1044
I37003
sS'came'
p1045
I108282
sS'fresh'
p1046
I102682
sS'hello'
p1047
I69731
sS'partial'
p1048
I44271
sS'enjoyable'
p1049
I102612
sS'unmatched'
p1050
I49268
sS'centers'
p1051
I105954
sS'luxuries'
p1052
I106915
sS'concerned'
p1053
I96489
sS'young'
p1054
I101216
sS'send'
p1055
I67148
sS'uniqueness'
p1056
I7893
sS'rememberable'
p1057
I92098
sS'resources'
p1058
I62933
sS'stocked'
p1059
I108876
sS'garden'
p1060
I21345
sS'pleasent'
p1061
I46678
sS'decorating'
p1062
I63048
sS'chechecked'
p1063
I39817
sS'continued'
p1064
I52994
sS'timely'
p1065
I77306
sS'harbor'
p1066
I26300
sS'eve'
p1067
I24453
sS'fewer'
p1068
I16753
sS'anxious'
p1069
I84341
sS'evr'
p1070
I71453
sS'video'
p1071
I85248
sS'enclosed'
p1072
I13754
sS'pajamas'
p1073
I59884
sS'victor'
p1074
I13124
sS'expressed'
p1075
I107812
sS'consistently'
p1076
I36866
sS'twins'
p1077
I15801
sS'1400'
p1078
I15215
sS'scenery'
p1079
I84942
sS'led'
p1080
I11741
sS'leg'
p1081
I78393
sS'punch'
p1082
I19535
sS'les'
p1083
I39915
sS'let'
p1084
I109384
sS'conviently'
p1085
I70764
sS'fifteen'
p1086
I42558
sS'althou'
p1087
I48006
sS'great'
p1088
I108592
sS'receive'
p1089
I102591
sS'involved'
p1090
I26657
sS'titanic'
p1091
I99004
sS'cta'
p1092
I44686
sS'cousins'
p1093
I57362
sS'opinion'
p1094
I100105
sS'residents'
p1095
I4170
sS'stephanie'
p1096
I22764
sS'maker'
p1097
I94162
sS'involves'
p1098
I77292
sS'thats'
p1099
I44791
sS'reserve'
p1100
I79725
sS'330'
p1101
I73203
sS'neiman'
p1102
I11512
sS'tools'
p1103
I90909
sS'confidence'
p1104
I99842
sS'certificate'
p1105
I103043
sS'chocolates'
p1106
I33505
sS'next'
p1107
I108750
sS'eleven'
p1108
I41777
sS'doubt'
p1109
I37763
sS'occurred'
p1110
I3998
sS'carrying'
p1111
I53483
sS'baby'
p1112
I33073
sS'gladly'
p1113
I104156
sS'customer'
p1114
I106958
sS'animals'
p1115
I99342
sS'this'
p1116
I109363
sS'clients'
p1117
I103116
sS'thin'
p1118
I61170
sS'fulfill'
p1119
I91154
sS'bent'
p1120
I32144
sS'process'
p1121
I99889
sS'lock'
p1122
I9107
sS'high'
p1123
I107542
sS'slip'
p1124
I61144
sS'docking'
p1125
I102316
sS'animal'
p1126
I47403
sS'establishment'
p1127
I101694
sS'blocks'
p1128
I96023
sS'await'
p1129
I5438
sS'tied'
p1130
I104476
sS'bridemaid'
p1131
I71488
sS'appetizer'
p1132
I66365
sS'efficiently'
p1133
I94200
sS'tomato'
p1134
I39360
sS'bellboys'
p1135
I99872
sS'22nd'
p1136
I29849
sS'counter'
p1137
I103476
sS'element'
p1138
I45539
sS'allow'
p1139
I102727
sS'classy'
p1140
I109464
sS'houston'
p1141
I82486
sS'move'
p1142
I99874
sS'produced'
p1143
I80833
sS'perfect'
p1144
I109350
sS'chosen'
p1145
I87629
sS'dispose'
p1146
I32389
sS'degrees'
p1147
I108266
sS'2010'
p1148
I91575
sS'designs'
p1149
I97779
sS'bat'
p1150
I103470
sS'ship'
p1151
I48129
sS'dock'
p1152
I27742
sS'kiss'
p1153
I19236
sS'realize'
p1154
I56561
sS'presidential'
p1155
I97195
sS'minimalist'
p1156
I98407
sS'scenic'
p1157
I92241
sS'delightful'
p1158
I96237
sS'truth'
p1159
I40553
sS'shortage'
p1160
I33527
sS'accompanied'
p1161
I92337
sS'beneath'
p1162
I35562
sS'glasses'
p1163
I80690
sS'doing'
p1164
I104487
sS'ambiance'
p1165
I92408
sS'oppertunity'
p1166
I85859
sS'books'
p1167
I50160
sS'snippy'
p1168
I76946
sS'wander'
p1169
I107580
sS'agoraphobia'
p1170
I99783
sS"'"
p1171
I109265
sS'knickerbocker'
p1172
I93264
sS'boutique'
p1173
I69194
sS'superbly'
p1174
I94088
sS'cutter'
p1175
I40461
sS'burke'
p1176
I60558
sS'surely'
p1177
I74177
sS'could'
p1178
I109081
sS'david'
p1179
I60557
sS'serenity'
p1180
I108841
sS'curtious'
p1181
I85093
sS'ultramodern'
p1182
I28378
sS'blown'
p1183
I109445
sS'450'
p1184
I65640
sS'scene'
p1185
I73160
sS'soothing'
p1186
I81372
sS'scent'
p1187
I32271
sS'prank'
p1188
I40536
sS'los'
p1189
I87043
sS'ordering'
p1190
I99711
sS'traveller'
p1191
I108897
sS'system'
p1192
I97339
sS'schnitzel'
p1193
I105547
sS'duvets'
p1194
I66848
sS'decorations'
p1195
I70088
sS'exhilarating'
p1196
I105604
sS'travelled'
p1197
I35328
sS'interests'
p1198
I43334
sS'amalfitinis'
p1199
I51021
sS'stars'
p1200
I101935
sS'mojitos'
p1201
I77543
sS'realized'
p1202
I76816
sS'elite'
p1203
I59631
sS'haven'
p1204
I91460
sS'steel'
p1205
I105087
sS'roberta'
p1206
I44051
sS'confortable'
p1207
I46711
sS'bother'
p1208
I33067
sS'pads'
p1209
I17635
sS'extraordinarily'
p1210
I97790
sS'negatively'
p1211
I77146
sS'steep'
p1212
I46692
sS'gently'
p1213
I60339
sS'gentle'
p1214
I103828
sS'receptionist'
p1215
I76366
sS'vaca'
p1216
I57846
sS'clearly'
p1217
I75171
sS'viewed'
p1218
I84773
sS'necessities'
p1219
I59711
sS'9am'
p1220
I73566
sS'dishes'
p1221
I69900
sS'hangover'
p1222
I35473
sS'waffles'
p1223
I36547
sS'sinatra'
p1224
I13744
sS'linda'
p1225
I96771
sS'soap'
p1226
I67925
sS'jbar'
p1227
I60547
sS'petals'
p1228
I75618
sS'courtesy'
p1229
I70641
sS'emaculate'
p1230
I68594
sS'champane'
p1231
I65678
sS'thanksgiving'
p1232
I43487
sS'face'
p1233
I85457
sS'mechanical'
p1234
I45846
sS'fact'
p1235
I107132
sS'atmosphere'
p1236
I109461
sS'chgo'
p1237
I5928
sS'centralized'
p1238
I57950
sS'bring'
p1239
I102960
sS'bikes'
p1240
I17607
sS'manchester'
p1241
I33778
sS'bedroom'
p1242
I109319
sS'rough'
p1243
I79287
sS'taps'
p1244
I29821
sS'jaw'
p1245
I107036
sS'should'
p1246
I108994
sS'jam'
p1247
I74656
sS'sylvia'
p1248
I8164
sS'hope'
p1249
I107969
sS'meant'
p1250
I104365
sS'handle'
p1251
I102831
sS'sweetie'
p1252
I18076
sS'means'
p1253
I106773
sS'familiar'
p1254
I27077
sS'cranky'
p1255
I95906
sS'lucky'
p1256
I95189
sS'clicked'
p1257
I35136
sS'h'
p1258
I35083
sS'taxes'
p1259
I103860
sS'stuff'
p1260
I75960
sS'streamlined'
p1261
I60806
sS'skimpy'
p1262
I76486
sS'24hrs'
p1263
I35014
sS'btw'
p1264
I5261
sS'configured'
p1265
I55890
sS'packet'
p1266
I62218
sS'bellhop'
p1267
I94229
sS'heaters'
p1268
I13066
sS'wire'
p1269
I58910
sS'email'
p1270
I98094
sS'courtyard'
p1271
I21349
sS'staring'
p1272
I18862
sS'figured'
p1273
I90737
sS'etc'
p1274
I104326
sS'll'
p1275
I101638
sS'co'
p1276
I19742
sS'cd'
p1277
I101746
sS'labor'
p1278
I62368
sS'keihl'
p1279
I5105
sS'wowwwww'
p1280
I32767
sS'powered'
p1281
I11965
sS'wonderous'
p1282
I19257
sS'drank'
p1283
I18671
sS'hottest'
p1284
I101498
sS'waste'
p1285
I30905
sS'>'
p1286
I37469
sS'atlanta'
p1287
I101657
sS'pretentious'
p1288
I17188
sS'accesible'
p1289
I57308
sS'ultra'
p1290
I107163
sS'aesthetics'
p1291
I79619
sS've'
p1292
I103739
sS'omni'
p1293
I88350
sS'insanely'
p1294
I31557
sS'lush'
p1295
I59777
sS'surprisingly'
p1296
I91514
sS'savings'
p1297
I104603
sS'vs'
p1298
I91579
sS'optimistic'
p1299
I82122
sS'sits'
p1300
I68139
sS'refurbing'
p1301
I11598
sS'romance'
p1302
I75564
sS'paula'
p1303
I43316
sS'ball'
p1304
I92270
sS'infinity'
p1305
I43035
sS'drink'
p1306
I99079
sS'upon'
p1307
I109293
sS'coffe'
p1308
I17071
sS'peir'
p1309
I65617
sS'dust'
p1310
I105362
sS'pleasantly'
p1311
I67674
sS'discounted'
p1312
I58237
sS'?).'
p1313
I1011
sS'lapdog'
p1314
I60745
sS'greated'
p1315
I21969
sS'350'
p1316
I17456
sS'audio'
p1317
I77102
sS'selfpark'
p1318
I27496
sS'less'
p1319
I108974
sS'moments'
p1320
I106136
sS'glut'
p1321
I104208
sS'clocks'
p1322
I108471
sS'rooms'
p1323
I109479
sS'paul'
p1324
I73189
sS'roomy'
p1325
I58801
sS'web'
p1326
I72923
sS'generous'
p1327
I85046
sS'wee'
p1328
I73491
sS'residential'
p1329
I15863
sS'combine'
p1330
I102531
sS'wet'
p1331
I100559
sS'government'
p1332
I108030
sS'delious'
p1333
I90344
sS'february'
p1334
I43799
sS'five'
p1335
I101692
sS'desk'
p1336
I107049
sS'pier'
p1337
I107312
sS'crisp'
p1338
I87237
sS'chairs'
p1339
I97598
sS'pocess'
p1340
I92598
sS'garage'
p1341
I86702
sS'become'
p1342
I102282
sS'clientel'
p1343
I97069
sS'shuttling'
p1344
I70068
sS'12pm'
p1345
I28878
sS'choosing'
p1346
I82092
sS'transport'
p1347
I51043
sS'hallways'
p1348
I73785
sS'bedding'
p1349
I105473
sS'does'
p1350
I108273
sS'blowing'
p1351
I90049
sS'schedule'
p1352
I82369
sS'pressure'
p1353
I61198
sS'cordless'
p1354
I39218
sS'sister'
p1355
I93740
sS'angeles'
p1356
I79291
sS'swimming'
p1357
I108258
sS'skyauction'
p1358
I3731
sS'commitment'
p1359
I75134
sS'roads'
p1360
I104324
sS'priviledges'
p1361
I86712
sS'swimmers'
p1362
I79064
sS'charities'
p1363
I60373
sS'housing'
p1364
I38368
sS'spots'
p1365
I103160
sS'bump'
p1366
I82713
sS'frustration'
p1367
I89144
sS'toothpaste'
p1368
I18474
sS'naturally'
p1369
I78224
sS'function'
p1370
I29728
sS'delivery'
p1371
I88984
sS'construction'
p1372
I49918
sS'delivers'
p1373
I65764
sS'count'
p1374
I101104
sS'evident'
p1375
I90425
sS'smooth'
p1376
I92476
sS'excitement'
p1377
I100403
sS'placed'
p1378
I109279
sS'convince'
p1379
I86055
sS'problem'
p1380
I107592
sS'cordial'
p1381
I107063
sS'irish'
p1382
I58600
sS'recognize'
p1383
I8131
sS'festival'
p1384
I53833
sS'consumed'
p1385
I89683
sS'inn'
p1386
I21346
sS'riverwalk'
p1387
I42175
sS'anaerobic'
p1388
I78111
sS'inc'
p1389
I30097
sS'compared'
p1390
I96961
sS'variety'
p1391
I73730
sS'saunas'
p1392
I106172
sS'compares'
p1393
I95529
sS'details'
p1394
I92583
sS'behold'
p1395
I101740
sS'repeat'
p1396
I65342
sS'monday'
p1397
I99392
sS'veiw'
p1398
I28943
sS'outlets'
p1399
I12073
sS'chance'
p1400
I86971
sS'lasted'
p1401
I42621
sS'searched'
p1402
I99286
sS'saver'
p1403
I88557
sS'blisters'
p1404
I42043
sS'mansion'
p1405
I100039
sS'saved'
p1406
I96958
sS'worked'
p1407
I99050
sS'lace'
p1408
I105125
sS'pedro'
p1409
I13102
sS'neighbours'
p1410
I36942
sS'voted'
p1411
I4167
sS'regal'
p1412
I72033
sS'worth'
p1413
I106595
sS'fireplaces'
p1414
I20935
sS'blanket'
p1415
I78935
sS'excutive'
p1416
I55381
sS'tickets'
p1417
I59852
sS'pinch'
p1418
I44086
sS'chew'
p1419
I73021
sS'29th'
p1420
I45678
sS'phones'
p1421
I58180
sS'chef'
p1422
I67209
sS'hors'
p1423
I51127
sS'7th'
p1424
I36399
sS'machines'
p1425
I104936
sS'decadence'
p1426
I98463
sS'+'
p1427
I92230
sS'above'
p1428
I106433
sS'toll'
p1429
I104323
sS'ceilings'
p1430
I108820
sS'officially'
p1431
I49348
sS'told'
p1432
I101722
sS'crunch'
p1433
I104578
sS'sinks'
p1434
I60067
sS'celebration'
p1435
I84720
sS'kudos'
p1436
I94317
sS'daughter'
p1437
I84440
sS'items'
p1438
I100570
sS'study'
p1439
I11897
sS'walkin'
p1440
I43507
sS'smoke'
p1441
I79263
sS'stressed'
p1442
I107320
sS'aka'
p1443
I100134
sS'secure'
p1444
I106657
sS'highly'
p1445
I107455
sS'opportunities'
p1446
I92376
sS'atrium'
p1447
I83038
sS'total'
p1448
I91856
sS'motivate'
p1449
I50254
sS'negative'
p1450
I108319
sS'blueberry'
p1451
I34668
sS'separated'
p1452
I90768
sS'haha'
p1453
I64147
sS'award'
p1454
I96377
sS'bloomingdates'
p1455
I35097
sS'backwards'
p1456
I32146
sS'bartender'
p1457
I93020
sS'wore'
p1458
I9876
sS'permits'
p1459
I78066
sS'work'
p1460
I108292
sS'worn'
p1461
I55774
sS'era'
p1462
I108792
sS'blooming'
p1463
I61845
sS'elegantly'
p1464
I108120
sS'indicated'
p1465
I52020
sS'indicates'
p1466
I176
sS'conforter'
p1467
I10225
sS'indifferent'
p1468
I1708
sS'recovery'
p1469
I7291
sS'provide'
p1470
I87225
sS'verify'
p1471
I54281
sS'id'
p1472
I99412
sS'interview'
p1473
I51305
sS'disappoint'
p1474
I82215
sS'ordinary'
p1475
I105245
sS'beach'
p1476
I79039
sS'pizza'
p1477
I73501
sS'dumbs'
p1478
I106358
sS'after'
p1479
I108293
sS'lap'
p1480
I79689
sS'chilled'
p1481
I17172
sS'elusive'
p1482
I108439
sS'appreciate'
p1483
I27828
sS'greet'
p1484
I76619
sS'configerations'
p1485
I40702
sS'greek'
p1486
I6439
sS'green'
p1487
I93254
sS'order'
p1488
I109237
sS'salon'
p1489
I4140
sS'office'
p1490
I104120
sS'muffin'
p1491
I98910
sS'diesighn'
p1492
I65653
sS'satisfied'
p1493
I90670
sS'awful'
p1494
I82110
sS'innovative'
p1495
I64821
sS'priciest'
p1496
I98481
sS'homewoods'
p1497
I37633
sS'ticket'
p1498
I49061
sS'somewhere'
p1499
I72116
sS'understated'
p1500
I98401
sS'sheas'
p1501
I58593
sS'then'
p1502
I100258
sS'them'
p1503
I106695
sS'woken'
p1504
I34550
sS'safe'
p1505
I106669
sS'touring'
p1506
I107638
sS'break'
p1507
I108778
sS'band'
p1508
I91565
sS'bang'
p1509
I67287
sS'coffer'
p1510
I93492
sS'they'
p1511
I109490
sS'bank'
p1512
I100122
sS'reasonably'
p1513
I99738
sS'l'
p1514
I105742
sS'dingy'
p1515
I64884
sS'artifical'
p1516
I36569
sS'reasonable'
p1517
I109141
sS'-,'
p1518
I6070
sS'rooom'
p1519
I70879
sS'amalfitini'
p1520
I51511
sS'schemes'
p1521
I91497
sS'masseuse'
p1522
I87779
sS'forty'
p1523
I73635
sS'trainers'
p1524
I106559
sS'strangers'
p1525
I6218
sS'daniel'
p1526
I72766
sS'forth'
p1527
I30695
sS'sliding'
p1528
I28809
sS'leftovers'
p1529
I35637
sS'standard'
p1530
I106320
sS'recovering'
p1531
I62585
sS'creates'
p1532
I60800
sS'flawless'
p1533
I97306
sS'footsteps'
p1534
I21211
sS'another'
p1535
I102858
sS'thoughtfully'
p1536
I3647
sS'thick'
p1537
I64290
sS'electronic'
p1538
I108481
sS'rated'
p1539
I53498
sS'elevator'
p1540
I78811
sS'plentiful'
p1541
I35245
sS'rates'
p1542
I96964
sS'airy'
p1543
I57800
sS'john'
p1544
I51769
sS'40th'
p1545
I11773
sS'dogs'
p1546
I63781
sS'happily'
p1547
I86896
sS'cereal'
p1548
I35665
sS'guilt'
p1549
I75435
sS'iron'
p1550
I52656
sS'tipping'
p1551
I53479
sS'minus'
p1552
I47299
sS'navigate'
p1553
I76007
sS'manner'
p1554
I95342
sS'stalls'
p1555
I38786
sS'forced'
p1556
I95347
sS'quieter'
p1557
I2106
sS'genuine'
p1558
I95341
sS'convenient'
p1559
I109151
sS'fountin'
p1560
I34190
sS'realy'
p1561
I44831
sS'quieted'
p1562
I74261
sS'luxury'
p1563
I109216
sS'swims'
p1564
I28731
sS'conducive'
p1565
I75200
sS'butted'
p1566
I39951
sS'prohibitive'
p1567
I104593
sS'involving'
p1568
I3999
sS'hesitation'
p1569
I39424
sS'neighborhoods'
p1570
I21564
sS'houlihan'
p1571
I31195
sS'shook'
p1572
I13123
sS'responded'
p1573
I64555
sS'fussy'
p1574
I4367
sS'renting'
p1575
I90779
sS'anniversary'
p1576
I107817
sS'enjoyed'
p1577
I109026
sS'toast'
p1578
I36556
sS'guidance'
p1579
I87911
sS'hrh'
p1580
I73266
sS'adequate'
p1581
I89100
sS'personality'
p1582
I63192
sS'do'
p1583
I106991
sS'dj'
p1584
I72843
sS'dc'
p1585
I47622
sS'leisure'
p1586
I108216
sS'downtime'
p1587
I99994
sS'nasty'
p1588
I17698
sS'cleanly'
p1589
I94086
sS'runs'
p1590
I44052
sS'steak'
p1591
I102184
sS'steal'
p1592
I54501
sS'inns'
p1593
I38362
sS'observed'
p1594
I90496
sS'techniques'
p1595
I66341
sS'pedicure'
p1596
I102136
sS'away'
p1597
I109446
sS'gentleman'
p1598
I12215
sS'unable'
p1599
I68224
sS'drawn'
p1600
I108425
sS'we'
p1601
I109443
sS'terms'
p1602
I94416
sS'wi'
p1603
I105509
sS'travellers'
p1604
I5812
sS'visited'
p1605
I109176
sS'00pm'
p1606
I30961
sS'packages'
p1607
I102431
sS'kitchen'
p1608
I90922
sS'received'
p1609
I106450
sS'essentially'
p1610
I28215
sS'ill'
p1611
I33769
sS'exceeds'
p1612
I101898
sS'requests'
p1613
I106972
sS'com'
p1614
I83294
sS'tough'
p1615
I33542
sS'royal'
p1616
I72547
sS'relaxation'
p1617
I88210
sS'tons'
p1618
I59031
sS'speak'
p1619
I95379
sS'refurbished'
p1620
I55186
sS'flexible'
p1621
I67153
sS'warmth'
p1622
I88401
sS'families'
p1623
I99728
sS'beloved'
p1624
I68944
sS'relaxing'
p1625
I106469
sS'catering'
p1626
I84103
sS'gracious'
p1627
I96268
sS'east'
p1628
I72094
sS'air'
p1629
I103269
sS'applies'
p1630
I36875
sS'aid'
p1631
I69676
sS'property'
p1632
I106282
sS'35th'
p1633
I18115
sS'vegetarian'
p1634
I57913
sS'mistake'
p1635
I41930
sS'cons'
p1636
I51148
sS')--'
p1637
I31770
sS'sting'
p1638
I104313
sS'tissue'
p1639
I102149
sS'confirmed'
p1640
I32462
sS'descent'
p1641
I102690
sS'monarch'
p1642
I85013
sS'quentin'
p1643
I13104
sS'hang'
p1644
I69536
sS'rain'
p1645
I39222
sS'hand'
p1646
I103345
sS'nix'
p1647
I92314
sS',...'
p1648
I32832
sS'nit'
p1649
I52806
sS'kept'
p1650
I95375
sS'humble'
p1651
I88442
sS'tho'
p1652
I53329
sS'contact'
p1653
I79680
sS'monaco'
p1654
I64118
sS'the'
p1655
I109475
sS'musical'
p1656
I73351
sS'photo'
p1657
I105281
sS'mid'
p1658
I96448
sS'thanks'
p1659
I107727
sS'swissotel'
p1660
I97649
sS'adding'
p1661
I43925
sS'spotlessly'
p1662
I55731
sS'cornell'
p1663
I33968
sS'27th'
p1664
I19584
sS'josh'
p1665
I88902
sS'spread'
p1666
I38870
sS'board'
p1667
I108135
sS'fares'
p1668
I104333
sS'plasma'
p1669
I101136
sS'intercon'
p1670
I51834
sS'lcd'
p1671
I106271
sS'picasso'
p1672
I49147
sS'night'
p1673
I109435
sS'towards'
p1674
I78809
sS'antique'
p1675
I88101
sS'born'
p1676
I84567
sS'hassle'
p1677
I82321
sS'orchid'
p1678
I10204
sS'vist'
p1679
I60590
sS'purple'
p1680
I6253
sS'phenomenal'
p1681
I105426
sS'/'
p1682
I107033
sS'asking'
p1683
I89985
sS'denied'
p1684
I91266
sS'adorable'
p1685
I22460
sS'posh'
p1686
I75207
sS'marketing'
p1687
I89728
sS'architectural'
p1688
I27736
sS'scarves'
p1689
I70587
sS'properties'
p1690
I90665
sS'newspapers'
p1691
I34542
sS'months'
p1692
I30598
sS'dined'
p1693
I108298
sS'delighted'
p1694
I94277
sS'stumble'
p1695
I50986
sS'available'
p1696
I108484
sS'fight'
p1697
I65054
sS'way'
p1698
I108623
sS'pleasureable'
p1699
I71575
sS'was'
p1700
I109471
sS'names'
p1701
I86932
sS'peninsula'
p1702
I10801
sS'astonished'
p1703
I92618
sS'true'
p1704
I109506
sS'crystal'
p1705
I91077
sS'chillout'
p1706
I4357
sS'unusually'
p1707
I19636
sS'flaw'
p1708
I24040
sS'guessed'
p1709
I19182
sS'promised'
p1710
I103826
sS'gibsons'
p1711
I21579
sS'topped'
p1712
I53011
sS'interested'
p1713
I101998
sS'test'
p1714
I94871
sS'scored'
p1715
I55486
sS'welcome'
p1716
I93675
sS'polite'
p1717
I106969
sS'scores'
p1718
I19406
sS'together'
p1719
I99051
sS'beds'
p1720
I108730
sS'reception'
p1721
I103224
sS'basically'
p1722
I84669
sS'concept'
p1723
I106044
sS'switched'
p1724
I108344
sS'valets'
p1725
I54573
sS'certainly'
p1726
I106990
sS'equipted'
p1727
I90151
sS'zone'
p1728
I55588
sS'watertower'
p1729
I57227
sS'quilts'
p1730
I46033
sS'brown'
p1731
I89425
sS'seemingly'
p1732
I94390
sS'vegas'
p1733
I67370
sS'anonymous'
p1734
I31658
sS'kitten'
p1735
I98909
sS'trouble'
p1736
I70391
sS'blast'
p1737
I37877
sS'presented'
p1738
I76337
sS'12th'
p1739
I23508
sS'p'
p1740
I71681
sS'guy'
p1741
I49173
sS'upper'
p1742
I77285
sS'regret'
p1743
I84166
sS'cost'
p1744
I78388
sS'cosy'
p1745
I4254
sS'appear'
p1746
I77578
sS'assistance'
p1747
I96397
sS'satelite'
p1748
I103291
sS'shared'
p1749
I105559
sS'satisfy'
p1750
I105136
sS'downloaded'
p1751
I68209
sS'goldfish'
p1752
I64310
sS'change'
p1753
I96577
sS'pedals'
p1754
I76581
sS'centerally'
p1755
I46667
sS'usually'
p1756
I105818
sS'pillow'
p1757
I97142
sS'cconference'
p1758
I56922
sS'retired'
p1759
I101417
sS'extra'
p1760
I108845
sS'lending'
p1761
I100027
sS'marked'
p1762
I39846
sS'sincerely'
p1763
I89421
sS'rarely'
p1764
I39395
sS'market'
p1765
I43058
sS'unimpressed'
p1766
I13727
sS'bigs'
p1767
I10730
sS'itunes'
p1768
I72744
sS'live'
p1769
I91563
sS'wonderfully'
p1770
I88753
sS'microfiber'
p1771
I100785
sS'rainfall'
p1772
I81595
sS'entrance'
p1773
I92838
sS'club'
p1774
I100614
sS'clue'
p1775
I103502
sS'coincierge'
p1776
I43
sS'elipitical'
p1777
I23374
sS'countertops'
p1778
I39232
sS'organizations'
p1779
I60371
sS'decked'
p1780
I106909
sS'car'
p1781
I104822
sS'cap'
p1782
I75250
sS'bowled'
p1783
I2883
sS'cam'
p1784
I79109
sS'cab'
p1785
I72490
sS'sleeep'
p1786
I76439
sS'heart'
p1787
I108008
sS'dedicated'
p1788
I105611
sS'december'
p1789
I108263
sS'heard'
p1790
I99625
sS'chic'
p1791
I102943
sS'clothing'
p1792
I70537
sS'fortunately'
p1793
I70738
sS'write'
p1794
I91727
sS'beat'
p1795
I98422
sS'??'
p1796
I42060
sS'product'
p1797
I71604
sS'staircase'
p1798
I99000
sS'aon'
p1799
I26367
sS'millinum'
p1800
I44394
sS'?)'
p1801
I51708
sS'occasionaly'
p1802
I48453
sS'remember'
p1803
I109022
sS'whenever'
p1804
I106675
sS'candles'
p1805
I68254
sS'typical'
p1806
I96415
sS'approx'
p1807
I51712
sS'serving'
p1808
I57392
sS'carmines'
p1809
I39171
sS'indeed'
p1810
I92883
sS'consulting'
p1811
I75414
sS'ended'
p1812
I83133
sS'cold'
p1813
I107140
sS'still'
p1814
I94840
sS'rooftop'
p1815
I88648
sS'gizillion'
p1816
I41978
sS'vicinity'
p1817
I46634
sS'window'
p1818
I96255
sS'spacious'
p1819
I108600
sS'affraid'
p1820
I56018
sS'non'
p1821
I83589
sS'amenties'
p1822
I29433
sS'fling'
p1823
I2140
sS'nob'
p1824
I78889
sS'tails'
p1825
I22464
sS'unimpressive'
p1826
I62205
sS'wealthy'
p1827
I45147
sS'not'
p1828
I109481
sS'nov'
p1829
I597
sS'now'
p1830
I107997
sS'hall'
p1831
I70060
sS'nor'
p1832
I25926
sS'wont'
p1833
I78992
sS'theaters'
p1834
I57752
sS'january'
p1835
I49367
sS'drop'
p1836
I52358
sS'entirely'
p1837
I82719
sS'el'
p1838
I55311
sS'domain'
p1839
I68146
sS'significantly'
p1840
I52795
sS'yeah'
p1841
I20581
sS'year'
p1842
I101803
sS'happen'
p1843
I66618
sS'calling'
p1844
I54582
sS'amusement'
p1845
I69283
sS'shown'
p1846
I99475
sS'accomplish'
p1847
I18301
sS'opened'
p1848
I107616
sS'space'
p1849
I103210
sS'furthermore'
p1850
I58118
sS'looking'
p1851
I108980
sS'receiving'
p1852
I100429
sS'shows'
p1853
I92209
sS'cart'
p1854
I39708
sS'advantages'
p1855
I104375
sS'restuarant'
p1856
I63659
sS'card'
p1857
I56294
sS'care'
p1858
I106049
sS'couldn'
p1859
I107966
sS'selections'
p1860
I106071
sS'honest'
p1861
I91900
sS'suffice'
p1862
I32307
sS'sprawling'
p1863
I31685
sS'initial'
p1864
I6777
sS'striking'
p1865
I15630
sS'yourself'
p1866
I105981
sS'directly'
p1867
I56773
sS'gasp'
p1868
I103498
sS'impossible'
p1869
I13311
sS'ring'
p1870
I43530
sS'drove'
p1871
I16203
sS'size'
p1872
I109324
sS'sheer'
p1873
I104236
sS'checked'
p1874
I107930
sS'silent'
p1875
I49962
sS'caught'
p1876
I44083
sS'remotely'
p1877
I22122
sS'friend'
p1878
I109173
sS'mostly'
p1879
I80459
sS'that'
p1880
I109340
sS'berghoff'
p1881
I56900
sS'flowers'
p1882
I63080
sS'appreciated'
p1883
I102859
sS'professionals'
p1884
I101214
sS'television'
p1885
I106272
sS'velveteen'
p1886
I78871
sS'transferred'
p1887
I42435
sS'optimism'
p1888
I99831
sS'apples'
p1889
I17640
sS'sublime'
p1890
I8969
sS'wrigley'
p1891
I53080
sS'craig'
p1892
I92197
sS'overnight'
p1893
I85138
sS'breakfast'
p1894
I109290
sS'form'
p1895
I103401
sS'terrific'
p1896
I95206
sS'equipment'
p1897
I81621
sS'online'
p1898
I87345
sS'begin'
p1899
I91725
sS'oppressive'
p1900
I21128
sS'price'
p1901
I109219
sS'neatly'
p1902
I97522
sS'importantly'
p1903
I91205
sS'pricy'
p1904
I15256
sS'homegame'
p1905
I30767
sS'america'
p1906
I88857
sS'forever'
p1907
I101446
sS'flawlessly'
p1908
I75365
sS'largish'
p1909
I17582
sS'egg'
p1910
I27525
sS'mrs'
p1911
I9789
sS'professional'
p1912
I109381
sS'schmaltzy'
p1913
I72687
sS'typically'
p1914
I20484
sS'german'
p1915
I72887
sS'talbot'
p1916
I76539
sS'crackling'
p1917
I17229
sS'upgrade'
p1918
I76518
sS'stair'
p1919
I66309
sS'stained'
p1920
I72981
sS'honors'
p1921
I54645
sS'only'
p1922
I107880
sS'pumpkin'
p1923
I105064
sS'televisions'
p1924
I101137
sS'truly'
p1925
I108407
sS'cannot'
p1926
I109498
sS'stroll'
p1927
I69516
sS'leather'
p1928
I78930
sS'husband'
p1929
I108382
sS'concert'
p1930
I9763
sS'whisked'
p1931
I80416
sS'actively'
p1932
I4016
sS'asleep'
p1933
I87269
sS'concern'
p1934
I89240
sS'firestone'
p1935
I29646
sS'3'
p1936
I107277
sS'skyscraper'
p1937
I43277
sS'between'
p1938
I105437
sS'whipped'
p1939
I32938
sS'notice'
p1940
I80370
sS'unrelaxable'
p1941
I61932
sS'talented'
p1942
I73749
sS'microfridge'
p1943
I45209
sS'comes'
p1944
I85911
sS'nearby'
p1945
I109196
sS'jeans'
p1946
I9877
sS'plusses'
p1947
I38745
sS'proved'
p1948
I94342
sS'mattress'
p1949
I105471
sS'coffeemaker'
p1950
I104897
sS'olives'
p1951
I49426
sS'oliver'
p1952
I7740
sS'cares'
p1953
I92213
sS'informed'
p1954
I77312
sS'carey'
p1955
I103752
sS'cared'
p1956
I35971
sS'exudes'
p1957
I61623
sS'nickle'
p1958
I53446
sS'countless'
p1959
I58567
sS'these'
p1960
I107427
sS'accommodating'
p1961
I108827
sS'handicapped'
p1962
I51842
sS'coolest'
p1963
I74745
sS'alcoholic'
p1964
I88935
sS'canceled'
p1965
I41490
sS'definitley'
p1966
I41270
sS'heels'
p1967
I42018
sS'stickers'
p1968
I11317
sS'mediocre'
p1969
I47735
sS'worry'
p1970
I105962
sS'media'
p1971
I108482
sS'intelligently'
p1972
I72326
sS'gentlemen'
p1973
I98765
sS'figuring'
p1974
I13371
sS'lite'
p1975
I69169
sS'finish'
p1976
I90818
sS'enjoyment'
p1977
I10095
sS'foam'
p1978
I87630
sS'fruit'
p1979
I102683
sS'situatated'
p1980
I64166
sS'favorites'
p1981
I82626
sS'tradition'
p1982
I77007
sS'complained'
p1983
I48464
sS'westin'
p1984
I44511
sS'theater'
p1985
I107412
sS'charges'
p1986
I52727
sS'32nd'
p1987
I41944
sS'severe'
p1988
I84300
sS'breeze'
p1989
I78083
sS'alleviate'
p1990
I99941
sS'coordinate'
p1991
I104531
sS'charged'
p1992
I31152
sS'taxi'
p1993
I104332
sS'knowledgeable'
p1994
I98333
sS'sundeck'
p1995
I86211
sS'dancers'
p1996
I73754
sS'valuable'
p1997
I60892
sS'touch'
p1998
I106218
sS'speed'
p1999
I107543
sS'legitimately'
p2000
I11854
sS'thinking'
p2001
I60187
sS'improvement'
p2002
I39847
sS'treatment'
p2003
I99250
sS'real'
p2004
I108781
sS'spectacular'
p2005
I94903
sS'read'
p2006
I77883
sS'gonna'
p2007
I75331
sS'amy'
p2008
I87039
sS'overlooks'
p2009
I58069
sS'listening'
p2010
I107547
sS'using'
p2011
I104315
sS'lady'
p2012
I73320
sS'fortune'
p2013
I58043
sS'greeting'
p2014
I90715
sS'miracle'
p2015
I87740
sS'benefit'
p2016
I87139
sS't'
p2017
I109224
sS'fully'
p2018
I108874
sS'apartments'
p2019
I59689
sS'duration'
p2020
I65995
sS'willis'
p2021
I58521
sS'hustle'
p2022
I99600
sS'business'
p2023
I108894
sS'chefs'
p2024
I91087
sS'hectic'
p2025
I19932
sS'exciting'
p2026
I101241
sS'throw'
p2027
I40820
sS'comparison'
p2028
I52771
sS'central'
p2029
I103689
sS'chop'
p2030
I85076
sS'journey'
p2031
I99840
sS'greatly'
p2032
I81112
sS'underway'
p2033
I2209
sS'heater'
p2034
I78846
sS'bedtime'
p2035
I26673
sS'heated'
p2036
I94457
sS'operator'
p2037
I42410
sS'nowadays'
p2038
I27012
sS'your'
p2039
I109016
sS'supervising'
p2040
I54951
sS'log'
p2041
I20762
sS'prepare'
p2042
I90914
sS'area'
p2043
I108949
sS'aren'
p2044
I94687
sS'start'
p2045
I89779
sS'low'
p2046
I101738
sS'lot'
p2047
I107654
sS'seasoned'
p2048
I65744
sS'immaculate'
p2049
I107244
sS'delayed'
p2050
I67422
sS'lettier'
p2051
I8187
sS'omelet'
p2052
I98138
sS'trying'
p2053
I67166
sS'feather'
p2054
I86007
sS'hire'
p2055
I100727
sS'default'
p2056
I18553
sS'bucket'
p2057
I40645
sS'tones'
p2058
I80352
sS'describe'
p2059
I107886
sS'moved'
p2060
I80964
sS'sales'
p2061
I52122
sS'ammenities'
p2062
I46376
sS'showerhead'
p2063
I81596
sS'maybe'
p2064
I97949
sS'confad'
p2065
I78779
sS'storage'
p2066
I45844
sS'intercontinental'
p2067
I106848
sS'evenings'
p2068
I102765
sS'you'
p2069
I109385
sS'poor'
p2070
I78435
sS'suites'
p2071
I107769
sS'drift'
p2072
I73508
sS'registry'
p2073
I39960
sS'suited'
p2074
I108960
sS'redecorating'
p2075
I56851
sS'restraunt'
p2076
I68283
sS'pool'
p2077
I108880
sS'building'
p2078
I102475
sS'since'
p2079
I107560
sS'month'
p2080
I107708
sS'thoughtful'
p2081
I80625
sS'mp3'
p2082
I22669
sS':('
p2083
I32921
sS'carpet'
p2084
I72982
sS'referring'
p2085
I40121
sS'fountain'
p2086
I65445
sS'washroom'
p2087
I12077
sS'beutiful'
p2088
I63788
sS'very'
p2089
I109492
sS'horror'
p2090
I54482
sS'robes'
p2091
I106251
sS'decide'
p2092
I96724
sS'-$'
p2093
I48097
sS'heaven'
p2094
I107307
sS'--'
p2095
I107774
sS'utililzed'
p2096
I8308
sS'mild'
p2097
I99782
sS'kiosks'
p2098
I1541
sS'steakhouse'
p2099
I103524
sS'blackout'
p2100
I34036
sS'cookies'
p2101
I59875
sS'streets'
p2102
I15115
sS'expansive'
p2103
I29779
sS'snippets'
p2104
I9453
sS'darkness'
p2105
I17555
sS'learned'
p2106
I13382
sS'except'
p2107
I66089
sS'tracks'
p2108
I68215
sS'strong'
p2109
I85122
sS'ahead'
p2110
I46307
sS'inspired'
p2111
I40637
sS'thursday'
p2112
I40281
sS'exceptionally'
p2113
I107062
sS'creepy'
p2114
I78789
sS'soldier'
p2115
I55647
sS'amount'
p2116
I109214
sS'musically'
p2117
I72274
sS'shuffle'
p2118
I68768
sS'family'
p2119
I108896
sS'marginal'
p2120
I104605
sS'glitch'
p2121
I26656
sS'trained'
p2122
I26952
sS'toys'
p2123
I73924
sS'flaws'
p2124
I77412
sS'takes'
p2125
I108904
sS'yummo'
p2126
I18192
sS'taken'
p2127
I102878
sS'gourmand'
p2128
I27273
sS'site'
p2129
I108145
sS'excuse'
p2130
I37019
sS'broke'
p2131
I9486
sS'hurry'
p2132
I107565
sS'grill'
p2133
I103067
sS'underwhelming'
p2134
I26705
sS'nine'
p2135
I97174
sS'evian'
p2136
I24013
sS'history'
p2137
I70876
sS'pushed'
p2138
I33512
sS'partner'
p2139
I68644
sS'lacks'
p2140
I51796
sS'terribly'
p2141
I69427
sS'utilize'
p2142
I64032
sS'stayed'
p2143
I109429
sS'surpassed'
p2144
I74165
sS'unlucky'
p2145
I13309
sS'menus'
p2146
I79546
sS'cloying'
p2147
I33966
sS'ft'
p2148
I73256
sS'tried'
p2149
I42117
sS'rude'
p2150
I31115
sS'liitle'
p2151
I3100
sS'dwarfed'
p2152
I50901
sS'sneak'
p2153
I45855
sS'fi'
p2154
I105511
sS'fl'
p2155
I23570
sS'a'
p2156
I109505
sS'workstation'
p2157
I69867
sS'criticize'
p2158
I13216
sS'preferential'
p2159
I28568
sS'3115'
p2160
I41663
sS'3114'
p2161
I41661
sS'bugs'
p2162
I76426
sS'anytime'
p2163
I82237
sS'breads'
p2164
I50393
sS'dream'
p2165
I106919
sS'bustle'
p2166
I99602
sS'help'
p2167
I106890
sS'bice'
p2168
I22801
sS'annoyingly'
p2169
I37820
sS'soon'
p2170
I105671
sS'held'
p2171
I91072
sS'wiener'
p2172
I105546
sS'environmentally'
p2173
I76267
sS'nordstrom'
p2174
I25172
sS'complex'
p2175
I40806
sS'actually'
p2176
I102598
sS'systems'
p2177
I85217
sS'friendliest'
p2178
I86535
sS'finer'
p2179
I98531
sS'evening'
p2180
I90636
sS'curtis'
p2181
I34714
sS'nestled'
p2182
I105082
sS'food'
p2183
I109457
sS'anticipated'
p2184
I79228
sS'starbucks'
p2185
I94166
sS'foot'
p2186
I103475
sS'towering'
p2187
I52514
sS'yr'
p2188
I32107
sS'occasions'
p2189
I13228
sS'freebies'
p2190
I62157
sS'payed'
p2191
I90070
sS'stopped'
p2192
I84450
sS'cleaners'
p2193
I63759
sS'referred'
p2194
I98882
sS'heavy'
p2195
I41555
sS'pamper'
p2196
I102746
sS'beyond'
p2197
I92947
sS'event'
p2198
I104518
sS'specials'
p2199
I49008
sS'surrounded'
p2200
I106494
sS'safety'
p2201
I17623
sS'7'
p2202
I85232
sS'issue'
p2203
I75898
sS'unfailingly'
p2204
I43245
sS'pun'
p2205
I72973
sS'bass'
p2206
I87888
sS'pub'
p2207
I11582
sS'houses'
p2208
I38381
sS'reason'
p2209
I91424
sS'base'
p2210
I106305
sS'put'
p2211
I104522
sS'earliest'
p2212
I58259
sS'epicenter'
p2213
I105088
sS'dishwasher'
p2214
I89651
sS'terrible'
p2215
I42417
sS'cheering'
p2216
I33907
sS'american'
p2217
I106582
sS'expecting'
p2218
I97728
sS'automobile'
p2219
I104317
sS'heartbeat'
p2220
I73709
sS'knots'
p2221
I104479
sS'drooling'
p2222
I72185
sS'doughnuts'
p2223
I49136
sS'reflected'
p2224
I60211
sS'talked'
p2225
I82891
sS'miss'
p2226
I96824
sS'station'
p2227
I95752
sS'dealing'
p2228
I80173
sS'jamie'
p2229
I89424
sS'overdrive'
p2230
I83996
sS'authors'
p2231
I13303
sS'off'
p2232
I108803
sS'sign'
p2233
I49005
sS'lollopalooza'
p2234
I53831
sS'(!)'
p2235
I68192
sS'grocery'
p2236
I89564
sS'kindly'
p2237
I89400
sS'performers'
p2238
I72346
sS'impersonal'
p2239
I86294
sS'grey'
p2240
I18576
sS'bride'
p2241
I11405
sS'toward'
p2242
I67883
sS'wasnt'
p2243
I78742
sS'grandaughter'
p2244
I37961
sS'juicy'
p2245
I95616
sS'juice'
p2246
I55251
sS'substantial'
p2247
I5904
sS'philly'
p2248
I73548
sS'lit'
p2249
I98800
sS"$'"
p2250
I10102
sS'aggravating'
p2251
I4011
sS'caliber'
p2252
I70515
sS'wath'
p2253
I23827
sS'multilingual'
p2254
I103276
sS'experiences'
p2255
I101672
sS'eaten'
p2256
I72319
sS'clear'
p2257
I89315
sS'swisshotel'
p2258
I44521
sS'clean'
p2259
I109420
sS'pickiest'
p2260
I70194
sS'latest'
p2261
I19405
sS'blend'
p2262
I85033
sS'tourest'
p2263
I65636
sS'stunned'
p2264
I97722
sS'celebrities'
p2265
I102426
sS'660'
p2266
I73254
sS'meticulously'
p2267
I94833
sS'justice'
p2268
I77781
sS'fleabag'
p2269
I45793
sS'flights'
p2270
I54739
sS'pretty'
p2271
I109110
sS'lennon'
p2272
I17061
sS'waterproof'
p2273
I19356
sS'famous'
p2274
I105545
sS'feels'
p2275
I107896
sS'basement'
p2276
I35088
sS'during'
p2277
I107482
sS'catches'
p2278
I92490
sS'locaated'
p2279
I58952
sS'diamond'
p2280
I88239
sS'millenium'
p2281
I91732
sS'hypo'
p2282
I87617
sS'recommendations'
p2283
I73683
sS'x'
p2284
I40595
sS'courteous'
p2285
I98335
sS'cramp'
p2286
I85896
sS'backtrack'
p2287
I39126
sS'delux'
p2288
I63170
sS'culture'
p2289
I108537
sS'descriptions'
p2290
I85001
sS'close'
p2291
I109047
sS'angie'
p2292
I50029
sS'locals'
p2293
I4777
sS'pictures'
p2294
I87342
sS'wow'
p2295
I108234
sS'won'
p2296
I104556
sS'probably'
p2297
I103731
sS'conditions'
p2298
I103878
sS'missing'
p2299
I22047
sS'zipped'
p2300
I23487
sS'spray'
p2301
I10205
sS'ranked'
p2302
I9189
sS'invisible'
p2303
I68244
sS'both'
p2304
I107803
sS'fiance'
p2305
I102874
sS'sensitive'
p2306
I87792
sS'forgotten'
p2307
I101698
sS'liked'
p2308
I108243
sS'wear'
p2309
I29806
sS'headed'
p2310
I94555
sS'battery'
p2311
I75901
sS'whatever'
p2312
I102477
sS'likes'
p2313
I82446
sS'dinning'
p2314
I106009
sS'described'
p2315
I23273
sS'stamp'
p2316
I17721
sS'damp'
p2317
I20724
sS'buisness'
p2318
I99261
sS'damn'
p2319
I25426
sS'empty'
p2320
I30897
sS'milenium'
p2321
I56570
sS'lived'
p2322
I103760
sS'else'
p2323
I107993
sS'lives'
p2324
I85757
sS'nightspots'
p2325
I31590
sS'utmost'
p2326
I106319
sS'look'
p2327
I109482
sS'pace'
p2328
I96579
sS'while'
p2329
I107338
sS'guide'
p2330
I68543
sS'loop'
p2331
I103190
sS'pack'
p2332
I78332
sS'lifeltime'
p2333
I88765
sS'overlooked'
p2334
I108727
sS'kiehl'
p2335
I60042
sS'ready'
p2336
I105031
sS'anymore'
p2337
I87673
sS'grant'
p2338
I107295
sS'talbott'
p2339
I77618
sS'grand'
p2340
I109134
sS'hallway'
p2341
I48459
sS'used'
p2342
I104285
sS'receptions'
p2343
I50722
sS'dime'
p2344
I106597
sS'bonus'
p2345
I108447
sS'42nd'
p2346
I96559
sS'000'
p2347
I67276
sS'cleaning'
p2348
I107054
sS'assortment'
p2349
I12181
sS'older'
p2350
I56471
sS'obviously'
p2351
I80157
sS'royalty'
p2352
I106907
sS'consistency'
p2353
I11649
sS'savvy'
p2354
I65752
sS'mislaid'
p2355
I41846
sS'ambassador'
p2356
I72093
sS'teenage'
p2357
I73073
sS'reviewer'
p2358
I48463
sS'caray'
p2359
I102177
sS'$'
p2360
I105824
sS'!),'
p2361
I9919
sS'fiancee'
p2362
I98216
sS'guaranteed'
p2363
I54305
sS'pillowtop'
p2364
I10230
sS'guarantees'
p2365
I93726
sS'cheryl'
p2366
I39149
sS'march'
p2367
I47376
sS'lacking'
p2368
I39376
sS'tiring'
p2369
I11571
sS'game'
p2370
I99395
sS'culturally'
p2371
I90451
sS'damage'
p2372
I29808
sS'inviting'
p2373
I109495
sS'signal'
p2374
I104232
sS'sofa'
p2375
I85988
sS'popular'
p2376
I85271
sS'softness'
p2377
I80412
sS'33rd'
p2378
I46348
sS'parade'
p2379
I25480
sS'fathers'
p2380
I18272
sS'some'
p2381
I109095
sS'(!),'
p2382
I35474
sS'pricetag'
p2383
I104587
sS'experienced'
p2384
I108681
sS'28th'
p2385
I44987
sS'trendy'
p2386
I96167
sS'delivered'
p2387
I102599
sS'corteous'
p2388
I75831
sS'minimal'
p2389
I7664
sS'sweating'
p2390
I43132
sS'run'
p2391
I101405
sS'aerosmith'
p2392
I19238
sS'step'
p2393
I98253
sS'negatives'
p2394
I69188
sS'shine'
p2395
I61724
sS'works'
p2396
I102130
sS'wouldnt'
p2397
I28970
sS'silence'
p2398
I49967
sS'seeing'
p2399
I96816
sS'keefer'
p2400
I103521
sS'within'
p2401
I106135
sS'anteroom'
p2402
I27908
sS'sprawled'
p2403
I72387
sS'smells'
p2404
I80703
sS'.('
p2405
I50046
sS'.)'
p2406
I104449
sS'.,'
p2407
I16700
sS'..'
p2408
I100251
sS'./'
p2409
I76015
sS'."'
p2410
I20435
sS".'"
p2411
I51755
sS'footage'
p2412
I48651
sS'specialty'
p2413
I64446
sS'reed'
p2414
I73190
sS'newer'
p2415
I40992
sS'..."'
p2416
I46242
sS'peopel'
p2417
I51917
sS'...)'
p2418
I19241
sS'....'
p2419
I79595
sS'similar'
p2420
I103084
sS'uber'
p2421
I61616
sS'ordered'
p2422
I101422
sS'adults'
p2423
I68576
sS'accessibility'
p2424
I108440
sS'doesn'
p2425
I92391
sS'cotton'
p2426
I84024
sS'dashed'
p2427
I78808
sS'fears'
p2428
I99800
sS'accross'
p2429
I5250
sS'nap'
p2430
I42220
sS'department'
p2431
I80143
sS'manhattan'
p2432
I68369
sS'smiles'
p2433
I80708
sS'draw'
p2434
I104436
sS'visits'
p2435
I103895
sS'drag'
p2436
I68168
sS'rested'
p2437
I93886
sS'evan'
p2438
I71460
sS'smiled'
p2439
I28365
sS'drab'
p2440
I52272
sS'reservation'
p2441
I86842
sS'structure'
p2442
I49148
sS'e'
p2443
I68616
sS'practically'
p2444
I87748
sS'dvd'
p2445
I102229
sS'outing'
p2446
I75633
sS'required'
p2447
I9110
sS'literally'
p2448
I68167
sS'requires'
p2449
I89734
sS'sounded'
p2450
I83099
sS'","'
p2451
I75162
sS'cheerful'
p2452
I80377
sS'desserts'
p2453
I97374
sS'go'
p2454
I109501
sS'compact'
p2455
I48013
sS'aria'
p2456
I81900
sS'suits'
p2457
I104499
sS'culinary'
p2458
I5319
sS'suite'
p2459
I109320
sS'friendly'
p2460
I108825
sS'kitty'
p2461
I58590
sS'wave'
p2462
I10090
sS'telling'
p2463
I67391
sS'stiff'
p2464
I80403
sS'button'
p2465
I33515
sS'ryan'
p2466
I8212
sS'barbara'
p2467
I46180
sS'comforts'
p2468
I4739
sS'waking'
p2469
I96813
sS'jump'
p2470
I50329
sS'redone'
p2471
I51186
sS'booth'
p2472
I15208
sS'picked'
p2473
I95171
sS'click'
p2474
I29098
sS'sausage'
p2475
I36551
sS'cupcakes'
p2476
I68191
sS'plays'
p2477
I6092
sS'paintings'
p2478
I98969
sS'espresso'
p2479
I23002
sS'entwistle'
p2480
I18258
sS'valet'
p2481
I105238
sS'unhelpful'
p2482
I545
sS'bellmen'
p2483
I45222
sS'eating'
p2484
I91782
sS'pristine'
p2485
I108962
sS';'
p2486
I105600
sS'believed'
p2487
I106729
sS'focused'
p2488
I9666
sS'nites'
p2489
I37555
sS'paranoid'
p2490
I76421
sS'products'
p2491
I100780
sS'buckwheat'
p2492
I27521
sS'gene'
p2493
I22762
sS'clark'
p2494
I107252
sS'claim'
p2495
I25934
sS'manage'
p2496
I85684
sS'apprehensive'
p2497
I48346
sS'wii'
p2498
I8600
sS'addressed'
p2499
I93104
sS'cloud'
p2500
I68170
sS'remains'
p2501
I30918
sS'camera'
p2502
I72877
sS'jonathan'
p2503
I41558
sS'belgian'
p2504
I32926
sS'started'
p2505
I103483
sS'charming'
p2506
I63469
sS'hardened'
p2507
I105143
sS'appointed'
p2508
I108121
sS'starter'
p2509
I47079
sS'frequently'
p2510
I95308
sS'salad'
p2511
I71027
sS'ride'
p2512
I72486
sS'meet'
p2513
I88337
sS'lockwood'
p2514
I109440
sS'drops'
p2515
I14735
sS'control'
p2516
I108493
sS'sought'
p2517
I105157
sS'wonderful'
p2518
I109247
sS'hesitate'
p2519
I65821
sS'boasting'
p2520
I64515
sS'picturesque'
p2521
I58342
sS'vibe'
p2522
I18577
sS'arrangement'
p2523
I40740
sS'located'
p2524
I108005
sS'fare'
p2525
I64298
sS'luxuriously'
p2526
I75380
sS'thunderstorm'
p2527
I36761
sS'ottman'
p2528
I4723
sS'bakery'
p2529
I83378
sS'software'
p2530
I89727
sS'!"'
p2531
I6223
sS'including'
p2532
I105221
sS'cruise'
p2533
I48128
sS'mentioned'
p2534
I65260
sS'kinzie'
p2535
I103809
sS'him'
p2536
I82641
sS'auto'
p2537
I104335
sS'sweets'
p2538
I65647
sS'hands'
p2539
I102191
sS'front'
p2540
I105808
sS'handy'
p2541
I108284
sS'pools'
p2542
I88171
sS'leash'
p2543
I47843
sS'unwind'
p2544
I76215
sS'showering'
p2545
I55993
sS'primehouse'
p2546
I60559
sS'chicagoland'
p2547
I104268
sS'adavantage'
p2548
I11601
sS'exceeded'
p2549
I108667
sS'special'
p2550
I109291
sS'entertainment'
p2551
I105194
sS'granddaughters'
p2552
I37957
sS'cause'
p2553
I103601
sS'intruded'
p2554
I34137
sS'umbrella'
p2555
I34988
sS'wines'
p2556
I88734
sS'70s'
p2557
I36352
sS'attending'
p2558
I86416
sS'completely'
p2559
I103766
sS'advisor'
p2560
I52391
sS'drowning'
p2561
I78979
sS'timey'
p2562
I39036
sS'ask'
p2563
I101363
sS'keep'
p2564
I108288
sS'49ers'
p2565
I882
sS'cnetre'
p2566
I53975
sS'powerful'
p2567
I104231
sS'equinox'
p2568
I77347
sS'quality'
p2569
I108924
sS'playlist'
p2570
I68775
sS'management'
p2571
I6153
sS'privacy'
p2572
I102844
sS'bears'
p2573
I99394
sS'spolied'
p2574
I11983
sS'touristy'
p2575
I88602
sS'ankle'
p2576
I9488
sS'perfectly'
p2577
I109278
sS'tourists'
p2578
I21463
sS'exactly'
p2579
I104962
sS'lists'
p2580
I5273
sS'approachable'
p2581
I75584
sS'chemicals'
p2582
I84369
sS'mohito'
p2583
I4385
sS'updating'
p2584
I37942
sS'splendido'
p2585
I25910
sS'heartedly'
p2586
I63924
sS'bed'
p2587
I109325
sS'6th'
p2588
I50815
sS'providing'
p2589
I106195
sS'sq'
p2590
I73255
sS'exhibit'
p2591
I26611
sS'tabs'
p2592
I27998
sS'need'
p2593
I108501
sS'able'
p2594
I109192
sS'impecable'
p2595
I8346
sS'instance'
p2596
I36684
sS'relatives'
p2597
I76251
sS'jaunt'
p2598
I61785
sS'birdland'
p2599
I73251
sS'nytimes'
p2600
I49089
sS'connected'
p2601
I104351
sS'awe'
p2602
I56520
sS'gallery'
p2603
I105282
sS'stereo'
p2604
I85238
sS'upset'
p2605
I47274
sS'scrambled'
p2606
I27327
sS'lowered'
p2607
I1753
sS'talk'
p2608
I100224
sS'impression'
p2609
I102656
sS'indoor'
p2610
I108249
sS'anyway'
p2611
I64149
sS'parked'
p2612
I27490
sS'boutiquey'
p2613
I47439
sS'convieniently'
p2614
I45044
sS'boutiques'
p2615
I70538
sS'arrrival'
p2616
I54782
sS'based'
p2617
I95178
sS'perla'
p2618
I35093
sS'('
p2619
I109202
sS'whimiscal'
p2620
I8283
sS'employer'
p2621
I104000
sS'ethan'
p2622
I84565
sS'employee'
p2623
I107799
sS'employed'
p2624
I104047
sS'achieve'
p2625
I86089
sS'commendation'
p2626
I1724
sS'michigan'
p2627
I109198
sS'overall'
p2628
I106278
sS'sipping'
p2629
I8596
sS'120'
p2630
I56137
sS'mgr'
p2631
I44093
sS'122'
p2632
I26113
sS'125'
p2633
I19589
sS'werent'
p2634
I52394
sS'129'
p2635
I37759
sS'places'
p2636
I107657
sS'shy'
p2637
I39641
sS'she'
p2638
I101721
sS'contain'
p2639
I29430
sS'shi'
p2640
I68945
sS'grab'
p2641
I104494
sS'legacy'
p2642
I65657
sS'homewood'
p2643
I90979
sS'horribly'
p2644
I62204
sS'tend'
p2645
I98628
sS'written'
p2646
I5000
sS'correctly'
p2647
I28357
sS'lug'
p2648
I108459
sS'comparable'
p2649
I52328
sS'tripadvisor'
p2650
I25208
sS'efficiency'
p2651
I6069
sS'key'
p2652
I98036
sS'melds'
p2653
I66334
sS'hits'
p2654
I81524
sS'enlivening'
p2655
I94481
sS'admit'
p2656
I99769
sS'bellboy'
p2657
I42531
sS'tuesday'
p2658
I12002
sS'kings'
p2659
I68303
sS'addition'
p2660
I105968
sS'bricked'
p2661
I88382
sS'polka'
p2662
I6254
sS'cent'
p2663
I91971
sS'treat'
p2664
I105450
sS'conciergies'
p2665
I42556
sS'shoulders'
p2666
I104551
sS'senses'
p2667
I102645
sS'mail'
p2668
I39903
sS'smoking'
p2669
I103256
sS'brunch'
p2670
I57451
sS'televison'
p2671
I23286
sS'1519'
p2672
I22859
sS'texas'
p2673
I45281
sS'evelyn'
p2674
I684
sS'bucks'
p2675
I98746
sS'adored'
p2676
I93789
sS'generic'
p2677
I62297
sS'began'
p2678
I52984
sS'strange'
p2679
I76089
sS'speaker'
p2680
I22900
sS'underground'
p2681
I69384
sS'party'
p2682
I103390
sS'impeccably'
p2683
I105489
sS'nightly'
p2684
I83620
sS'luxorius'
p2685
I93994
sS'spree'
p2686
I91811
sS'impeccable'
p2687
I107796
sS'energized'
p2688
I81318
sS'ashley'
p2689
I95225
sS'i'
p2690
I109497
sS'well'
p2691
I107677
sS'riff'
p2692
I3106
sS'attractively'
p2693
I31402
sS'42'
p2694
I81834
sS'accurate'
p2695
I76341
sS'purifier'
p2696
I31982
sS'tastfully'
p2697
I8279
sS'sofie'
p2698
I71632
sS'touches'
p2699
I68677
sS'virtual'
p2700
I105285
sS'advertised'
p2701
I76400
sS'lures'
p2702
I18077
sS'sweet'
p2703
I89114
sS'riverside'
p2704
I97150
sS'accomodate'
p2705
I107808
sS'kick'
p2706
I90937
sS'ample'
p2707
I75954
sS'historic'
p2708
I108578
sS'immediately'
p2709
I100187
sS'lincoln'
p2710
I107416
sS'lost'
p2711
I75991
sS'sized'
p2712
I109105
sS'lose'
p2713
I42923
sS'lends'
p2714
I56480
sS'shed'
p2715
I30900
sS'glare'
p2716
I2194
sS'crisps'
p2717
I4230
sS'shea'
p2718
I2616
sS'library'
p2719
I4751
sS'francisco'
p2720
I93769
sS'warmer'
p2721
I107150
sS'cleveland'
p2722
I35522
sS'home'
p2723
I108111
sS'liking'
p2724
I17191
sS'wallstreet'
p2725
I99329
sS'leery'
p2726
I99775
sS'delaware'
p2727
I20977
sS'weeknights'
p2728
I37929
sS'?'
p2729
I100756
sS'reaching'
p2730
I101548
sS'refuge'
p2731
I105626
sS'recognized'
p2732
I90745
sS'compatible'
p2733
I22670
sS'recognizes'
p2734
I14258
sS'pastries'
p2735
I51114
sS'equally'
p2736
I52778
sS'previously'
p2737
I70968
sS'washington'
p2738
I49103
sS'artists'
p2739
I73750
sS'couldnt'
p2740
I67042
sS'dug'
p2741
I62123
sS'additional'
p2742
I87698
sS'museum'
p2743
I107650
sS'noticed'
p2744
I77479
sS'north'
p2745
I106123
sS'fountains'
p2746
I28855
sS'hi'
p2747
I106269
sS'technician'
p2748
I5409
sS'highest'
p2749
I106452
sS'eat'
p2750
I103382
sS'hd'
p2751
I103219
sS'he'
p2752
I102911
sS'storied'
p2753
I53307
sS'hosting'
p2754
I90988
sS'signed'
p2755
I32639
sS'converted'
p2756
I52558
sS'stories'
p2757
I73636
sS'woke'
p2758
I94525
sS'display'
p2759
I96906
sS'reservations'
p2760
I102582
sS'fingertips'
p2761
I107747
sS'kisses'
p2762
I7000
sS'twist'
p2763
I88102
sS'bedspreads'
p2764
I68158
sS'beats'
p2765
I76483
sS'erie'
p2766
I87886
sS'eric'
p2767
I24268
sS'coffeepot'
p2768
I95134
sS'propositioned'
p2769
I17240
sS'treadmills'
p2770
I58568
sS'star'
p2771
I106436
sS'astounding'
p2772
I64893
sS'stay'
p2773
I109240
sS'additionally'
p2774
I100408
sS'friends'
p2775
I107869
sS'northbridge'
p2776
I25174
sS'samsung'
p2777
I39214
sS'dripped'
p2778
I29816
sS'portion'
p2779
I103634
sS'extras'
p2780
I53736
sS'pardon'
p2781
I72971
sS'newcomer'
p2782
I104570
sS'asian'
p2783
I80555
sS'consists'
p2784
I31674
sS'attentive'
p2785
I105312
sS'captain'
p2786
I21973
sS'fronts'
p2787
I35189
sS'buddy'
p2788
I758
sS'aug'
p2789
I49487
sS'swam'
p2790
I94451
sS'remodeled'
p2791
I83385
sS'seriously'
p2792
I99055
sS'sorry'
p2793
I19492
sS'updated'
p2794
I57063
sS'affect'
p2795
I75198
sS'vast'
p2796
I86060
sS'skills'
p2797
I38526
sS'convenience'
p2798
I108868
sS'enhance'
p2799
I67711
sS'heading'
p2800
I62641
sS'clothes'
p2801
I36772
sS'likely'
p2802
I76744
sS'even'
p2803
I108483
sS'preferences'
p2804
I68650
sS'lights'
p2805
I106349
sS'reheating'
p2806
I35643
sS'new'
p2807
I108909
sS'tips'
p2808
I75510
sS'ever'
p2809
I108437
sS'centric'
p2810
I60385
sS'pancakes'
p2811
I56223
sS'never'
p2812
I109334
sS'disposable'
p2813
I17633
sS'drew'
p2814
I104382
sS'met'
p2815
I98928
sS'active'
p2816
I71986
sS'100'
p2817
I89740
sS'105'
p2818
I2116
sS'dry'
p2819
I106564
sS'credit'
p2820
I103647
sS'frendly'
p2821
I12009
sS'fantastic'
p2822
I108366
sS'specifics'
p2823
I99101
sS'guests'
p2824
I108963
sS'jackets'
p2825
I70585
sS')...'
p2826
I56741
sS'recomment'
p2827
I905
sS'watering'
p2828
I81456
sS'call'
p2829
I108515
sS'calm'
p2830
I5360
sS'recommend'
p2831
I109362
sS'type'
p2832
I109137
sS'tell'
p2833
I98736
sS'warm'
p2834
I109466
sS'adult'
p2835
I41787
sS'pride'
p2836
I81469
sS'room'
p2837
I109339
sS'setup'
p2838
I104121
sS'roof'
p2839
I67729
sS'movies'
p2840
I87265
sS'guise'
p2841
I18082
sS'give'
p2842
I108995
sS'bellman'
p2843
I99652
sS'honey'
p2844
I76592
sS'foods'
p2845
I78092
sS'amazing'
p2846
I109393
sS'bathrobes'
p2847
I102350
sS'quibble'
p2848
I23402
sS'undergoing'
p2849
I57018
sS'replacing'
p2850
I25001
sS'cadillac'
p2851
I46787
sS'loyalty'
p2852
I32869
sS'waterfront'
p2853
I50362
sS'president'
p2854
I28177
sS'purchase'
p2855
I1070
sS'third'
p2856
I45383
sS'maintain'
p2857
I4478
sS'waited'
p2858
I42658
sS'operate'
p2859
I27681
sS'imts'
p2860
I104662
sS'deco'
p2861
I53628
sS'deck'
p2862
I68778
sS'responsive'
p2863
I106967
sS'imressive'
p2864
I42504
sS'before'
p2865
I109305
sS'chihuahua'
p2866
I70736
sS'personal'
p2867
I106558
sS'soaking'
p2868
I78617
sS','
p2869
I109421
sS'better'
p2870
I107973
sS'differently'
p2871
I82367
sS'weeks'
p2872
I80894
sS'pleasurable'
p2873
I101880
sS'combination'
p2874
I100285
sS'workout'
p2875
I108885
sS'runny'
p2876
I41752
sS'therapy'
p2877
I102142
sS'indulge'
p2878
I98468
sS'downright'
p2879
I30801
sS'bono'
p2880
I17063
sS'went'
p2881
I109437
sS'higher'
p2882
I48682
sS'side'
p2883
I83876
sS'bone'
p2884
I87873
sS'mean'
p2885
I87404
sS'afforded'
p2886
I79326
sS'conplaint'
p2887
I33536
sS'forgot'
p2888
I87109
sS'navy'
p2889
I107311
sS'enclosure'
p2890
I38775
sS'content'
p2891
I69374
sS'tolietries'
p2892
I50957
sS'surprise'
p2893
I101538
sS'turning'
p2894
I94300
sS'bldg'
p2895
I31529
sS'245'
p2896
I77013
sS'249'
p2897
I29751
sS'messages'
p2898
I77085
sS'seveal'
p2899
I36402
sS'isn'
p2900
I104270
sS'signature'
p2901
I61967
sS'moving'
p2902
I60267
sS'loud'
p2903
I27040
sS'user'
p2904
I108444
sS'features'
p2905
I108579
sS'hook'
p2906
I23556
sS'featured'
p2907
I92265
sS'floors'
p2908
I56252
sS'grady'
p2909
I71683
sS'downside'
p2910
I53432
sS'comforter'
p2911
I61164
sS'ditch'
p2912
I31813
sS'girls'
p2913
I79957
sS'2'
p2914
I100234
sS'gym'
p2915
I101027
sS'somewhat'
p2916
I65751
sS'peculiar'
p2917
I29305
sS'stocking'
p2918
I36991
sS'boarding'
p2919
I29111
sS'distance'
p2920
I108024
sS'matter'
p2921
I106335
sS'fabulous'
p2922
I109088
sS'mini'
p2923
I106243
sS'seer'
p2924
I61876
sS'palace'
p2925
I39886
sS'modern'
p2926
I108852
sS'mind'
p2927
I99833
sS'mine'
p2928
I99809
sS'seen'
p2929
I107921
sS'seem'
p2930
I104592
sS'mins'
p2931
I51696
sS'tells'
p2932
I68078
sS'niece'
p2933
I88499
sS'sleeper'
p2934
I43845
sS'replenished'
p2935
I94285
sS'memorabilia'
p2936
I73733
sS'mario'
p2937
I77387
sS'regular'
p2938
I103463
sS'maria'
p2939
I53140
sS'massages'
p2940
I104454
sS'assisting'
p2941
I85262
sS'don'
p2942
I100064
sS'alarm'
p2943
I108470
sS'm'
p2944
I107341
sS'dog'
p2945
I108335
sS'points'
p2946
I69353
sS'breathed'
p2947
I84399
sS'consumer'
p2948
I4969
sS'annoyed'
p2949
I80457
sS'dot'
p2950
I6256
sS'beaten'
p2951
I27664
sS'visitor'
p2952
I103166
sS'retire'
p2953
I60863
sS'liberty'
p2954
I68085
sS'stepping'
p2955
I108802
sS'seadog'
p2956
I18942
sS'entreway'
p2957
I107034
sS'weekends'
p2958
I65583
sS'folks'
p2959
I75502
sS'wearing'
p2960
I42017
sS'tiles'
p2961
I66253
sS'stop'
p2962
I97222
sS'coast'
p2963
I77372
sS'christopher'
p2964
I13110
sS'tiled'
p2965
I105110
sS'earn'
p2966
I69352
sS'bar'
p2967
I108303
sS'scandanavian'
p2968
I26145
sS'bay'
p2969
I71950
sS'bag'
p2970
I83704
sS'bad'
p2971
I105853
sS'architecture'
p2972
I108695
sS'grilled'
p2973
I39356
sS'shula'
p2974
I95481
sS'complimentartry'
p2975
I101958
sS'fascinating'
p2976
I2925
sS'fluffy'
p2977
I84230
sS'decided'
p2978
I107863
sS'00'
p2979
I104809
sS'said'
p2980
I108415
sS'06'
p2981
I50517
sS'07'
p2982
I50569
sS'04'
p2983
I23477
sS'05'
p2984
I23479
sS'08'
p2985
I37393
sS'09'
p2986
I39815
sS'pets'
p2987
I108322
sS'sorts'
p2988
I83583
sS'extrodinary'
p2989
I72793
sS'ignorance'
p2990
I40815
sS'lotion'
p2991
I5707
sS'cousin'
p2992
I86762
sS'picking'
p2993
I58786
sS'suggested'
p2994
I103431
sS'civilised'
p2995
I4345
sS'germaphobe'
p2996
I42154
sS'against'
p2997
I6173
sS'privledges'
p2998
I31162
sS'uno'
p2999
I37311
sS'exemplary'
p3000
I67193
sS'appeared'
p3001
I27955
sS'height'
p3002
I63207
sS'loaded'
p3003
I68771
sS'san'
p3004
I93768
sS'proceeded'
p3005
I98021
sS'puts'
p3006
I101703
sS'three'
p3007
I100490
sS'tiny'
p3008
I47176
sS'ting'
p3009
I78858
sS'replicate'
p3010
I59341
sS'interest'
p3011
I102030
sS'basic'
p3012
I55696
sS'basil'
p3013
I22040
sS'entered'
p3014
I103398
sS'lovely'
p3015
I107941
sS'website'
p3016
I105278
sS'afternoons'
p3017
I88737
sS'personally'
p3018
I94423
sS'165'
p3019
I9419
sS'regretted'
p3020
I53637
sS'exception'
p3021
I7342
sS'tang'
p3022
I101913
sS'near'
p3023
I105189
sS'neat'
p3024
I90610
sS'balance'
p3025
I60347
sS'employees'
p3026
I109114
sS'seven'
p3027
I106512
sS'metropolitan'
p3028
I6071
sS'...'
p3029
I105726
sS'is'
p3030
I109504
sS'sushi'
p3031
I82618
sS'it'
p3032
I109503
sS'cant'
p3033
I57763
sS'im'
p3034
I29189
sS'il'
p3035
I92692
sS'in'
p3036
I109477
sS'fabulously'
p3037
I1599
sS'ic'
p3038
I52377
sS'seattle'
p3039
I5819
sS'ie'
p3040
I45178
sS'redecorated'
p3041
I56884
sS'if'
p3042
I109129
sS'overstated'
p3043
I20511
sS'bottles'
p3044
I53461
sS'make'
p3045
I108625
sS'bottled'
p3046
I53739
sS'filtered'
p3047
I4702
sS'meets'
p3048
I6068
sS'governors'
p3049
I88435
sS'zagat'
p3050
I53497
sS'kit'
p3051
I92156
sS'delight'
p3052
I103169
sS'opportunity'
p3053
I100674
sS'kid'
p3054
I96690
sS'butter'
p3055
I102702
sS'positve'
p3056
I6564
sS'programs'
p3057
I60376
sS'youre'
p3058
I62972
sS'smokes'
p3059
I24389
sS'bedspread'
p3060
I31363
sS'materials'
p3061
I28501
sS'qualities'
p3062
I61280
sS'claims'
p3063
I53802
sS'yours'
p3064
I89422
sS'left'
p3065
I98505
sS'just'
p3066
I109076
sS'versed'
p3067
I5014
sS'sporting'
p3068
I19327
sS'assigned'
p3069
I107938
sS'human'
p3070
I91225
sS'yep'
p3071
I43046
sS'yes'
p3072
I100846
sS'yet'
p3073
I100528
sS'character'
p3074
I40452
sS'save'
p3075
I78999
sS'boasted'
p3076
I48278
sS'vanessa'
p3077
I9800
sS'discreet'
p3078
I2854
sS'dreamy'
p3079
I87146
sS'3pm'
p3080
I28883
sS'background'
p3081
I4353
sS'dreams'
p3082
I108842
sS'vanity'
p3083
I78615
sS'performing'
p3084
I58518
sS'interestingly'
p3085
I48415
sS'deal'
p3086
I108355
sS'somehow'
p3087
I82586
sS'dead'
p3088
I23394
sS'dear'
p3089
I30601
sS'pain'
p3090
I102158
sS'tripped'
p3091
I79410
sS'microwave'
p3092
I90811
sS'trunks'
p3093
I108809
sS'niketown'
p3094
I57225
sS'carte'
p3095
I9069
sS'dunkin'
p3096
I49135
sS'super'
p3097
I108050
sS'yelling'
p3098
I31118
sS'ribs'
p3099
I62951
sS'valentines'
p3100
I265
sS'cliche'
p3101
I72689
sS'afternoon'
p3102
I109298
sS'islands'
p3103
I8795
sS'scenary'
p3104
I72794
sS'automatically'
p3105
I15475
sS'definetely'
p3106
I58392
sS'managers'
p3107
I75232
sS'down'
p3108
I102192
sS'complaints'
p3109
I106976
sS'lieu'
p3110
I27112
sS'refined'
p3111
I97590
sS'amazingly'
p3112
I104063
sS'flying'
p3113
I73149
sS'offering'
p3114
I61959
sS'fireworks'
p3115
I45496
sS'ford'
p3116
I58514
sS'lows'
p3117
I11638
sS'220'
p3118
I23895
sS'pavilion'
p3119
I1479
sS'traits'
p3120
I72594
sS'harmony'
p3121
I81107
sS'attached'
p3122
I41681
sS'renovations'
p3123
I82077
sS'classic'
p3124
I97099
sS'covers'
p3125
I91519
sS'fashioned'
p3126
I92366
sS'muffins'
p3127
I102699
sS'awhile'
p3128
I61154
sS'commuting'
p3129
I101649
sS'insitiute'
p3130
I55654
sS'marinated'
p3131
I49434
sS'generally'
p3132
I54898
sS'handed'
p3133
I6137
sS'digital'
p3134
I38312
sS'felt'
p3135
I108498
sS'fell'
p3136
I100188
sS'dearborn'
p3137
I13882
sS'pizzas'
p3138
I13286
sS'weekend'
p3139
I109312
sS'died'
p3140
I75906
sS'daily'
p3141
I109509
sS'luckier'
p3142
I41295
sS'precise'
p3143
I109473
sS'managed'
p3144
I33845
sS'themed'
p3145
I72276
sS'woodwork'
p3146
I56472
sS'skip'
p3147
I29130
sS'relieve'
p3148
I105980
sS'knotch'
p3149
I71343
sS'manager'
p3150
I68896
sS'mile'
p3151
I107302
sS'skin'
p3152
I87793
sS'abundant'
p3153
I105908
sS'milk'
p3154
I59873
sS'vacationed'
p3155
I26041
sS'21st'
p3156
I29014
sS'anticipation'
p3157
I50214
sS'yummy'
p3158
I64274
sS'answered'
p3159
I84472
sS'finally'
p3160
I102802
sS'marks'
p3161
I89591
sS'innovation'
p3162
I60183
sS'advised'
p3163
I46967
sS'word'
p3164
I107881
sS'parkview'
p3165
I27891
sS'dim'
p3166
I16932
sS'limes'
p3167
I19528
sS'did'
p3168
I109480
sS'die'
p3169
I107100
sS'luxuriance'
p3170
I101689
sS'accidentally'
p3171
I24996
sS'travels'
p3172
I88323
sS'item'
p3173
I101587
sS'excellence'
p3174
I72820
sS'dip'
p3175
I88488
sS'round'
p3176
I105605
sS'olympic'
p3177
I105597
sS'unexpected'
p3178
I68885
sS'villa'
p3179
I25912
sS'frindly'
p3180
I45742
sS'copy'
p3181
I104935
sS'maintaince'
p3182
I55825
sS'adds'
p3183
I15059
sS'fillet'
p3184
I94779
sS'suspect'
p3185
I11846
sS'international'
p3186
I104420
sS'filled'
p3187
I106954
sS'transportation'
p3188
I106631
sS'exceutive'
p3189
I463
sS'clerk'
p3190
I101719
sS'french'
p3191
I108938
sS'linnens'
p3192
I77199
sS'6pm'
p3193
I48333
sS'congestion'
p3194
I104321
sS'wait'
p3195
I109499
sS'box'
p3196
I7865
sS'boy'
p3197
I79236
sS'hbo'
p3198
I70370
sS'institute'
p3199
I95221
sS'shift'
p3200
I36222
sS'strudel'
p3201
I18394
sS'suggestion'
p3202
I34849
sS'priceless'
p3203
I89718
sS'conveniently'
p3204
I108194
sS'headboards'
p3205
I29004
sS'massage'
p3206
I104496
sS'genuinely'
p3207
I92460
sS'breathtaking'
p3208
I108735
sS'useful'
p3209
I37277
sS'hotels'
p3210
I108928
sS'everybody'
p3211
I97752
sS'perk'
p3212
I72740
sS'visit'
p3213
I109371
sS'thru'
p3214
I53244
sS'checkout'
p3215
I73157
sS'saks'
p3216
I39087
sS'rasheeda'
p3217
I42943
sS'sharing'
p3218
I62420
sS'downtown'
p3219
I109280
sS'effort'
p3220
I77143
sS'housekeeping'
p3221
I77181
sS'fly'
p3222
I79104
sS'reviews'
p3223
I89761
sS'soup'
p3224
I87882
sS'9th'
p3225
I24129
sS'making'
p3226
I108554
sS'arrive'
p3227
I100294
sS'nearest'
p3228
I86801
sS'crazy'
p3229
I59052
sS'sample'
p3230
I62981
sS'glamourous'
p3231
I90432
sS'michagan'
p3232
I10602
sS'sunday'
p3233
I56053
sS'pure'
p3234
I98462
sS'tile'
p3235
I81584
sS'nyc'
p3236
I11821
sS'persuasion'
p3237
I66916
sS'map'
p3238
I68795
sS'staying'
p3239
I106859
sS'designer'
p3240
I100729
sS'mat'
p3241
I68220
sS'140'
p3242
I24759
sS'may'
p3243
I103458
sS'max'
p3244
I103644
sS'149'
p3245
I932
sS'membership'
p3246
I34899
sS'designed'
p3247
I96564
sS'mag'
p3248
I107301
sS'guys'
p3249
I55481
sS'man'
p3250
I105756
sS'neck'
p3251
I81134
sS'frquently'
p3252
I3590
sS'confrotable'
p3253
I78920
sS'macys'
p3254
I54389
sS'block'
p3255
I67622
sS'basket'
p3256
I53596
sS'tall'
p3257
I63217
sS'gesture'
p3258
I12422
sS'cute'
p3259
I70528
sS'shoes'
p3260
I88046
sS'disclosure'
p3261
I43337
sS'wishing'
p3262
I83742
sS'namaste'
p3263
I68222
sS'valences'
p3264
I40602
sS'recoup'
p3265
I72532
sS'terrace'
p3266
I79521
sS'group'
p3267
I99969
sS'thank'
p3268
I108570
sS'interesting'
p3269
I100315
sS'bedbug'
p3270
I77203
sS'maid'
p3271
I105430
sS'policy'
p3272
I103257
sS'ours'
p3273
I107152
sS'main'
p3274
I108239
sS'brainer'
p3275
I36461
sS'finance'
p3276
I109264
sS'tucked'
p3277
I49641
sS'views'
p3278
I108736
sS'christening'
p3279
I101278
sS'sooner'
p3280
I72228
sS'lunch'
p3281
I100613
sS'developments'
p3282
I38369
sS'mariott'
p3283
I18534
sS'rock'
p3284
I75007
sS'southshore'
p3285
I6954
sS'conventions'
p3286
I29691
sS'signage'
p3287
I27852
sS'girl'
p3288
I101658
sS'requesting'
p3289
I99930
sS'living'
p3290
I99057
sS'3rd'
p3291
I56096
sS'nominal'
p3292
I92298
sS'shepards'
p3293
I735
sS'pizzeria'
p3294
I37310
sS'correct'
p3295
I9013
sS'earlier'
p3296
I65073
sS'hefty'
p3297
I48961
sS'rows'
p3298
I38366
sS'california'
p3299
I87046
sS'advance'
p3300
I105149
sS'waiter'
p3301
I94258
sS'masseuses'
p3302
I103004
sS'headphones'
p3303
I74665
sS'thing'
p3304
I108314
sS'funky'
p3305
I47953
sS'think'
p3306
I106442
sS'frequent'
p3307
I92030
sS'first'
p3308
I109434
sS'exotic'
p3309
I92876
sS'crim'
p3310
I78745
sS'crib'
p3311
I96497
sS'fast'
p3312
I107168
sS'carry'
p3313
I83714
sS'crip'
p3314
I4670
sS'cheesy'
p3315
I63480
sS'little'
p3316
I104484
sS'slept'
p3317
I103741
sS'anyone'
p3318
I109366
sS'escort'
p3319
I53613
sS'eyes'
p3320
I97493
sS'broadcast'
p3321
I58510
sS'11'
p3322
I52134
sS'10'
p3323
I99418
sS'13'
p3324
I31463
sS'12'
p3325
I51823
sS'15'
p3326
I56253
sS'14'
p3327
I51825
sS'17'
p3328
I52453
sS'16'
p3329
I53424
sS'scraping'
p3330
I105086
sS'lugs'
p3331
I9415
sS'victorian'
p3332
I38410
sS'were'
p3333
I109491
sS'acknowledged'
p3334
I61062
sS'winding'
p3335
I63102
sS'pastry'
p3336
I65406
sS'speakers'
p3337
I24626
sS'efficient'
p3338
I99893
sS'upgrading'
p3339
I68872
sS'shocked'
p3340
I78973
sS'interior'
p3341
I106425
sS'performance'
p3342
I1168
sS'personalized'
p3343
I107546
sS'cooing'
p3344
I70525
sS'channel'
p3345
I63252
sS'ultimate'
p3346
I83986
sS'bets'
p3347
I74575
sS'200'
p3348
I101504
sS'203'
p3349
I3738
sS'amiable'
p3350
I17686
sS'theatre'
p3351
I109056
sS'normal'
p3352
I107319
sS'track'
p3353
I58663
sS'cheesecake'
p3354
I39061
sS'paid'
p3355
I103856
sS'rehearsal'
p3356
I70020
sS'skinner'
p3357
I105744
sS'sheets'
p3358
I108055
sS'pair'
p3359
I74663
sS'queens'
p3360
I7980
sS'especially'
p3361
I108642
sS'surprising'
p3362
I61672
sS'shop'
p3363
I90132
sS'rating'
p3364
I106437
sS'shot'
p3365
I99327
sS'show'
p3366
I91197
sS'comfortal'
p3367
I86371
sS'contemporary'
p3368
I106581
sS'bedside'
p3369
I23307
sS'shoe'
p3370
I61723
sS'corner'
p3371
I97298
sS'treasure'
p3372
I105080
sS'enough'
p3373
I95381
sS'black'
p3374
I18574
sS'germs'
p3375
I76423
sS'enthusiasm'
p3376
I37115
sS'info'
p3377
I9998
sS'get'
p3378
I108551
sS'nearly'
p3379
I82878
sS'gem'
p3380
I51420
sS'gel'
p3381
I5704
sS'busiest'
p3382
I37064
sS'morning'
p3383
I108560
sS'miles'
p3384
I26099
sS'finishing'
p3385
I69873
sS'silently'
p3386
I31985
sS'hancok'
p3387
I12795
sS'excllent'
p3388
I67029
sS'seat'
p3389
I90255
sS'ballrooms'
p3390
I108133
sS'wonder'
p3391
I68161
sS'registering'
p3392
I39957
sS'behind'
p3393
I105358
sS'reading'
p3394
I94149
sS'across'
p3395
I102021
sS'oversized'
p3396
I44258
sS'affordable'
p3397
I89977
sS'august'
p3398
I103793
sS'singers'
p3399
I73752
sS'tub'
p3400
I97332
sS'tuck'
p3401
I4410
sS'trader'
p3402
I36978
sS'according'
p3403
I82639
sS'restroom'
p3404
I92505
sS'luxuary'
p3405
I79202
sS'tour'
p3406
I107266
sS'disappointment'
p3407
I82223
sS'awards'
p3408
I75150
sS'breakfasts'
p3409
I54874
sS'among'
p3410
I107679
sS'cornered'
p3411
I33747
sS'venues'
p3412
I72178
sS'maintained'
p3413
I87555
sS'tastings'
p3414
I62985
sS'anyplace'
p3415
I63014
sS'considering'
p3416
I105042
sS'unusual'
p3417
I57567
sS'capable'
p3418
I57536
sS'mark'
p3419
I51978
sS'mart'
p3420
I103193
sS'mary'
p3421
I69542
sS'shopping'
p3422
I109066
sS'offered'
p3423
I107596
sS'regency'
p3424
I85393
sS'wake'
p3425
I98116
sS'odyssey'
p3426
I42002
sS'those'
p3427
I108966
sS'sound'
p3428
I78536
sS'stacked'
p3429
I25994
sS'slumber'
p3430
I105480
sS'cancelled'
p3431
I8206
sS'awakened'
p3432
I22377
sS'bathe'
p3433
I68261
sS'bathrooms'
p3434
I108733
sS'conferences'
p3435
I63640
sS'lakeshore'
p3436
I70772
sS'coffee'
p3437
I108506
sS'sleeping'
p3438
I85998
sS'middle'
p3439
I106935
sS'sudden'
p3440
I86767
sS'baths'
p3441
I57070
sS'everyday'
p3442
I85756
sS'bags'
p3443
I104077
sS'par'
p3444
I98581
sS'harsh'
p3445
I84367
sS'pay'
p3446
I105822
sS'same'
p3447
I106653
sS'pad'
p3448
I93118
sS'stepped'
p3449
I99859
sS'pan'
p3450
I27522
sS'oil'
p3451
I82934
sS'voss'
p3452
I24011
sS'running'
p3453
I62060
sS'totally'
p3454
I84455
sS'drain'
p3455
I53172
sS'largely'
p3456
I107726
sS'roughly'
p3457
I67423
sS'solve'
p3458
I5414
sS'bottle'
p3459
I94250
sS'lakefront'
p3460
I53120
sS'bumping'
p3461
I48395
sS'amazed'
p3462
I99010
sS'gates'
p3463
I81301
sS'outdoor'
p3464
I87369
sS'money'
p3465
I101085
sS'sights'
p3466
I104225
sS'aspect'
p3467
I86098
sS'flavor'
p3468
I14914
sS'wifes'
p3469
I33582
sS'asthma'
p3470
I84301
sS'nick'
p3471
I44006
sS'beagle'
p3472
I68696
sS'4'
p3473
I106435
sS'extensive'
p3474
I105528
sS'docks'
p3475
I107121
sS'mon'
p3476
I37347
sS'mom'
p3477
I75449
sS'credentials'
p3478
I75428
sS'railroad'
p3479
I6955
sS'disappointed'
p3480
I106741
sS'grim'
p3481
I33880
sS'serves'
p3482
I52620
sS'server'
p3483
I108653
sS'facing'
p3484
I50143
sS'chamber'
p3485
I521
sS'either'
p3486
I98426
sS'served'
p3487
I106591
sS'groomsman'
p3488
I70023
sS'doll'
p3489
I16545
sS'cabs'
p3490
I83340
sS'matching'
p3491
I16540
sS'gross'
p3492
I71414
sS'confirm'
p3493
I6562
sS'overly'
p3494
I46739
sS'moderate'
p3495
I12734
sS'seconds'
p3496
I83692
sS'fitness'
p3497
I108882
sS'arts'
p3498
I58519
sS'crabtree'
p3499
I682
sS'stations'
p3500
I102317
sS'mixes'
p3501
I4382
sS'airline'
p3502
I54769
sS'youve'
p3503
I90429
sS'mixed'
p3504
I32913
sS'uncontentious'
p3505
I78976
sS'marriott'
p3506
I62022
sS'road'
p3507
I82716
sS'bountiful'
p3508
I36532
sS'airlines'
p3509
I33745
sS'einstein'
p3510
I39073
sS'paraphernalia'
p3511
I32394
sS'mornings'
p3512
I63244
sS'sophisticated'
p3513
I102636
sS'downstairs'
p3514
I102169
sS'adler'
p3515
I58856
sS'arranged'
p3516
I102812
sS'romantic'
p3517
I106423
sS'suitcase'
p3518
I18687
sS'deliberation'
p3519
I10507
sS'deep'
p3520
I105083
sS'fellow'
p3521
I46867
sS'planetarium'
p3522
I58857
sS'lifetime'
p3523
I88892
sS'fill'
p3524
I91101
sS'again'
p3525
I106992
sS'retiring'
p3526
I94488
sS'personnel'
p3527
I105889
sS'drivers'
p3528
I45740
sS'field'
p3529
I55582
sS'important'
p3530
I102969
sS'chris'
p3531
I19876
sS'decorated'
p3532
I108918
sS'480'
p3533
I99189
sS'remote'
p3534
I75905
sS'u'
p3535
I93981
sS'alright'
p3536
I79073
sS'deluxe'
p3537
I99487
sS'starting'
p3538
I11634
sS'colleges'
p3539
I57623
sS'forget'
p3540
I104559
sS'allergy'
p3541
I85010
sS'dollar'
p3542
I106845
sS'.....'
p3543
I35098
sS'....$'
p3544
I12981
sS'fixtures'
p3545
I97120
sS'children'
p3546
I106062
sS'reluctant'
p3547
I104187
sS'cotails'
p3548
I65679
sS'enjoying'
p3549
I106648
sS'premium'
p3550
I104191
sS'sitting'
p3551
I89340
sS'heavenly'
p3552
I93684
sS'aware'
p3553
I45165
sS'fall'
p3554
I87268
sS'difference'
p3555
I97327
sS'celebrity'
p3556
I92710
sS'applicable'
p3557
I37575
sS'20th'
p3558
I66017
sS'neighborhood'
p3559
I100177
sS'burger'
p3560
I95606
sS'perspective'
p3561
I97630
sS'layover'
p3562
I77507
sS'further'
p3563
I88814
sS'dial'
p3564
I58179
sS'abd'
p3565
I18450
sS'opted'
p3566
I104817
sS'caffeine'
p3567
I99566
sS'trinket'
p3568
I25087
sS'plush'
p3569
I108833
sS'ranged'
p3570
I88426
sS'visting'
p3571
I41063
sS'higly'
p3572
I74541
sS'ranges'
p3573
I14618
sS'operating'
p3574
I9173
sS'christy'
p3575
I44090
sS'search'
p3576
I108503
sS'division'
p3577
I30684
sS'stella'
p3578
I13243
sS'airport'
p3579
I106479
sS'16thz'
p3580
I3440
sS'buses'
p3581
I45724
sS'transit'
p3582
I104358
sS'eye'
p3583
I92492
sS'raff'
p3584
I3107
sS'two'
p3585
I109430
sS'amenities'
p3586
I109146
sS'tacky'
p3587
I108860
sS'expedia'
p3588
I55928
sS'reeked'
p3589
I88528
sS'admissions'
p3590
I58238
sS'apprehensions'
p3591
I99943
sS'particular'
p3592
I94513
sS'town'
p3593
I107583
sS'none'
p3594
I105059
sS'hour'
p3595
I106552
sS'ohare'
p3596
I44727
sS'des'
p3597
I66901
sS'remain'
p3598
I11302
sS'escorted'
p3599
I104068
sS'dec'
p3600
I52384
sS'marble'
p3601
I105485
sS'def'
p3602
I106270
sS'compare'
p3603
I92630
sS'share'
p3604
I105763
sS'purchased'
p3605
I102743
sS'sharp'
p3606
I45543
sS'!'
p3607
I109394
sS'siren'
p3608
I33037
sS'plans'
p3609
I107408
sS'comfort'
p3610
I108846
sS'congierge'
p3611
I33540
sS'maps'
p3612
I88538
sS'needn'
p3613
I68118
sS'blacked'
p3614
I4705
sS'suppose'
p3615
I82690
sS'advice'
p3616
I93030
sS'different'
p3617
I97175
sS'hlton'
p3618
I107183
sS'sophistication'
p3619
I100287
sS'number6'
p3620
I45726
sS'connectivity'
p3621
I78027
sS'blood'
p3622
I69541
sS'coming'
p3623
I106445
sS'crowded'
p3624
I100047
sS'cooperating'
p3625
I101754
sS'toiletries'
p3626
I105813
sS'upholstered'
p3627
I91369
sS'responsibility'
p3628
I7193
sS'pleasure'
p3629
I102534
sS'playing'
p3630
I34646
sS'infant'
p3631
I96481
sS'through'
p3632
I106645
sS'lava'
p3633
I105562
sS'existence'
p3634
I108912
sS'suffer'
p3635
I28111
sS'24'
p3636
I106551
sS'25'
p3637
I46300
sS'26'
p3638
I53469
sS'27'
p3639
I58538
sS'20'
p3640
I103807
sS'22'
p3641
I36484
sS'pcs'
p3642
I4418
sS'neightborhood'
p3643
I14868
sS'28'
p3644
I37487
sS'29'
p3645
I46302
sS'late'
p3646
I107617
sS'good'
p3647
I109208
sS'walls'
p3648
I95704
sS'frigid'
p3649
I15388
sS'complain'
p3650
I105914
sS'easily'
p3651
I107782
sS'2s'
p3652
I5936
sS'2x'
p3653
I33451
sS'drake'
p3654
I40976
sS'biscuits'
p3655
I5730
sS'ports'
p3656
I24281
sS'exquisite'
p3657
I107773
sS'everyone'
p3658
I107043
sS'delicious'
p3659
I109426
sS'house'
p3660
I109244
sS'fish'
p3661
I64068
sS'hard'
p3662
I86282
sS'idea'
p3663
I63450
sS'extended'
p3664
I93851
sS'connect'
p3665
I23696
sS'lovers'
p3666
I102795
sS'remodelling'
p3667
I11620
sS'print'
p3668
I47404
sS'bistro'
p3669
I94552
sS'assist'
p3670
I92463
sS'geared'
p3671
I52717
sS'difficulty'
p3672
I20296
sS'reconfirming'
p3673
I27171
sS'members'
p3674
I100424
sS'beginning'
p3675
I43996
sS'benefits'
p3676
I96786
sS'needing'
p3677
I87393
sS'lotions'
p3678
I60048
sS'conducted'
p3679
I88548
sS'embraces'
p3680
I76828
sS'dont'
p3681
I76235
sS'utilized'
p3682
I92135
sS'done'
p3683
I106678
sS'5th'
p3684
I78802
sS'least'
p3685
I107041
sS'obligatory'
p3686
I73055
sS'paint'
p3687
I40625
sS'180'
p3688
I7318
sS'muscles'
p3689
I81135
sS'drapes'
p3690
I19357
sS'park'
p3691
I109201
sS'part'
p3692
I102737
sS'favorable'
p3693
I88568
sS'believe'
p3694
I103654
sS'b'
p3695
I75000
sS'compliments'
p3696
I25861
sS'dossier'
p3697
I4982
sS'gotten'
p3698
I82476
sS'supposed'
p3699
I32934
sS'treated'
p3700
I106324
sS'urban'
p3701
I68634
sS'ages'
p3702
I86693
sS'wellington'
p3703
I57399
sS'showers'
p3704
I101142
sS'aged'
p3705
I52779
sS'orders'
p3706
I84524
sS'built'
p3707
I105134
sS'dancing'
p3708
I66524
sS'couch'
p3709
I48727
sS'majority'
p3710
I36096
sS'lifts'
p3711
I21904
sS'serene'
p3712
I75167
sS'eggs'
p3713
I94032
sS'most'
p3714
I108863
sS'charm'
p3715
I106751
sS'significant'
p3716
I4544
sS'services'
p3717
I106206
sS'extremely'
p3718
I106776
sS'refrigerator'
p3719
I90809
sS'cramped'
p3720
I73195
sS'particularily'
p3721
I20860
sS'ky'
p3722
I61598
sS'joining'
p3723
I35139
sS'particularly'
p3724
I105801
sS'scattered'
p3725
I75619
sS'jared'
p3726
I17361
sS'hopped'
p3727
I102213
sS'fine'
p3728
I105918
sS'find'
p3729
I107971
sS'cell'
p3730
I77093
sS'giant'
p3731
I72886
sS'nervous'
p3732
I42865
sS'unhappy'
p3733
I71753
sS'8'
p3734
I50515
sS'express'
p3735
I85775
sS'cheaper'
p3736
I76844
sS'merchandise'
p3737
I103192
sS'oeuvres'
p3738
I51130
sS'common'
p3739
I86104
sS'doubles'
p3740
I55542
sS'cheese'
p3741
I82158
sS'mouthwash'
p3742
I691
sS'restaurants'
p3743
I109097
sS'lion'
p3744
I49051
sS'individual'
p3745
I103489
sS'11th'
p3746
I78242
sS'cozy'
p3747
I109111
sS'desires'
p3748
I34287
sS'visiting'
p3749
I108041
sS'please'
p3750
I80354
sS'fans'
p3751
I231
sS'myriad'
p3752
I58123
sS'amentites'
p3753
I99388
sS'burned'
p3754
I77579
sS'champagne'
p3755
I80760
sS'consierge'
p3756
I18707
sS'drury'
p3757
I17756
sS'historical'
p3758
I88797
sS'complementary'
p3759
I81761
sS'complement'
p3760
I94431
sS'interfaced'
p3761
I46529
sS'cubes'
p3762
I4725
sS'restaurant'
p3763
I109441
sS'solely'
p3764
I95179
sS'annual'
p3765
I20035
sS'foreign'
p3766
I104432
sS'alot'
p3767
I78743
sS'kimptons'
p3768
I46924
sS'upgraded'
p3769
I87653
sS'cakes'
p3770
I49399
sS'point'
p3771
I109358
sS'simple'
p3772
I91361
sS'recycling'
p3773
I60316
sS'simply'
p3774
I107905
sS'upgrades'
p3775
I56094
sS'throughout'
p3776
I100815
sS'expensive'
p3777
I104804
sS'patiently'
p3778
I61092
sS'ensures'
p3779
I90486
sS'create'
p3780
I93610
sS'dropping'
p3781
I107037
sS'ensured'
p3782
I4286
sS'ireland'
p3783
I41839
sS'peppers'
p3784
I50390
sS'intrusive'
p3785
I100061
sS'meeting'
p3786
I107253
sS'priced'
p3787
I100526
sS'pricey'
p3788
I83875
sS'understand'
p3789
I102732
sS'prices'
p3790
I97445
sS'solid'
p3791
I51694
sS'bill'
p3792
I87569
sS'tolerate'
p3793
I17734
sS'replaced'
p3794
I28494
sS'mimosas'
p3795
I57449
sS'fun'
p3796
I106953
sS'omelettes'
p3797
I89696
sS'century'
p3798
I29015
sS'grander'
p3799
I108428
sS'encountered'
p3800
I107950
sS'decoration'
p3801
I99139
sS'itself'
p3802
I108690
sS'facade'
p3803
I11287
sS'monroe'
p3804
I26297
sS'italy'
p3805
I103762
sS'faboulous'
p3806
I10722
sS'undwinding'
p3807
I63635
sS'keys'
p3808
I17499
sS'desks'
p3809
I106256
sS'husbands'
p3810
I69424
sS'moment'
p3811
I108701
sS'purpose'
p3812
I66695
sS'redesigned'
p3813
I80959
sS'spent'
p3814
I107685
sS'landmark'
p3815
I14001
sS'entry'
p3816
I106615
sS'spend'
p3817
I99296
sS'ammenity'
p3818
I41000
sS'ellipticals'
p3819
I17605
sS'shape'
p3820
I85158
sS'thorough'
p3821
I32550
sS'alternative'
p3822
I73718
sS'cup'
p3823
I104918
sS'blankets'
p3824
I29002
sS'source'
p3825
I20305
sS'easter'
p3826
I7068
sS'excited'
p3827
I98271
sS'unloading'
p3828
I43998
sS'bin'
p3829
I48602
sS'big'
p3830
I106788
sS'bid'
p3831
I30074
sS'matters'
p3832
I89782
sS'truely'
p3833
I63702
sS'bit'
p3834
I104249
sS'miffed'
p3835
I39320
sS'walrus'
p3836
I68263
sS'often'
p3837
I108543
sS'absolutely'
p3838
I108585
sS'magnificent'
p3839
I107029
sS'back'
p3840
I109502
sS'strongest'
p3841
I52673
sS'pricing'
p3842
I100205
sS'mirror'
p3843
I105503
sS'ourselves'
p3844
I108521
sS'pronounced'
p3845
I28355
sS'scale'
p3846
I70279
sS'aerobic'
p3847
I78109
sS'decision'
p3848
I106744
sS'proficient'
p3849
I80620
sS'per'
p3850
I104810
sS'connecting'
p3851
I55725
sS'patient'
p3852
I84477
sS'remembered'
p3853
I86930
sS'usd'
p3854
I20755
sS'lounges'
p3855
I55998
sS'from'
p3856
I109508
sS'&'
p3857
I100145
sS'oatmeal'
p3858
I15511
sS'satisfactory'
p3859
I88471
sS'forward'
p3860
I108370
sS'bored'
p3861
I31913
sS'invite'
p3862
I93899
sS'hoped'
p3863
I95203
sS'boys'
p3864
I46503
sS'directed'
p3865
I20867
sS'planes'
p3866
I2218
sS'groove'
p3867
I35580
sS'constant'
p3868
I79679
sS'single'
p3869
I106037
sS'aveda'
p3870
I100779
sS'cafe'
p3871
I66900
sS'%'
p3872
I100431
sS'tweens'
p3873
I17850
sS'forewarned'
p3874
I14691
sS'amalifa'
p3875
I101232
sS'cellar'
p3876
I108169
sS'lend'
p3877
I103343
sS'favourite'
p3878
I51748
sS'prepared'
p3879
I85088
sS'utterly'
p3880
I80821
sS'helpfuly'
p3881
I19872
sS'overlooking'
p3882
I79360
sS'cooked'
p3883
I103533
sS'2000'
p3884
I93522
sS'2006'
p3885
I53555
sS'2007'
p3886
I51827
sS'2004'
p3887
I46556
sS'2005'
p3888
I49488
sS'2008'
p3889
I80508
sS'courtiest'
p3890
I21656
sS'chriskindl'
p3891
I18391
sS'groceries'
p3892
I36994
sS'grays'
p3893
I17466
sS'helps'
p3894
I60340
sS'masculine'
p3895
I20096
sS'ambience'
p3896
I56483
sS'pleasing'
p3897
I80160
sS'dessert'
p3898
I71033
sS'putting'
p3899
I17292
sS'arrange'
p3900
I70076
sS'entire'
p3901
I104144
sS'prefect'
p3902
I24737
sS'doggy'
p3903
I74535
sS'mesmerizing'
p3904
I85625
sS'dimed'
p3905
I62141
sS'conviences'
p3906
I33263
sS'busier'
p3907
I30773
sS'joes'
p3908
I36979
sS'joey'
p3909
I13283
sS'layouts'
p3910
I90143
sS'uncomfortable'
p3911
I48068
sS'exuberant'
p3912
I98541
sS'myspa'
p3913
I81888
sS'chicago'
p3914
I109459
sS'giving'
p3915
I94217
sS'assisted'
p3916
I104073
sS'inconveniences'
p3917
I57026
sS'access'
p3918
I106629
sS'exercise'
p3919
I88478
sS'body'
p3920
I85067
sS'exchange'
p3921
I104443
sS'apologetic'
p3922
I28482
sS'spacing'
p3923
I59558
sS'sink'
p3924
I85060
sS'others'
p3925
I96651
sS'safes'
p3926
I48304
sS'extreme'
p3927
I74339
sS'remark'
p3928
I94499
sS'33'
p3929
I65644
sS'32'
p3930
I102233
sS'31'
p3931
I56916
sS'30'
p3932
I77021
sS'37'
p3933
I106266
sS'35'
p3934
I56708
sS'honor'
p3935
I50611
sS'named'
p3936
I49349
sS'presidents'
p3937
I28589
sS'private'
p3938
I108138
sS'limo'
p3939
I84105
sS'festivals'
p3940
I53112
sS'chi'
p3941
I95488
sS'classically'
p3942
I63031
sS'totality'
p3943
I75174
sS'invoting'
p3944
I70865
sS'themselves'
p3945
I107069
sS'prized'
p3946
I35203
sS'tax'
p3947
I52123
sS'kiosk'
p3948
I85199
sS'impishly'
p3949
I2333
sS'train'
p3950
I108805
sS'arranging'
p3951
I52997
sS'account'
p3952
I103875
sS'tag'
p3953
I22305
sS'obvious'
p3954
I72671
sS'praise'
p3955
I25431
sS'didnt'
p3956
I89298
sS'employe'
p3957
I78790
sS'reserved'
p3958
I101321
sS'snacks'
p3959
I107605
sS'effectively'
p3960
I43924
sS'overtly'
p3961
I27981
sS'dinners'
p3962
I37927
sS'danishes'
p3963
I36558
sS'rehabbed'
p3964
I38718
sS'lamp'
p3965
I94150
sS'profile'
p3966
I68092
sS'buildings'
p3967
I108033
sS'collection'
p3968
I102336
sS'bothered'
p3969
I13406
sS'preferred'
p3970
I86206
sS'fab'
p3971
I11382
sS'lines'
p3972
I102652
sS'doller'
p3973
I53219
sS'linen'
p3974
I27196
sS'chief'
p3975
I43312
sS'lined'
p3976
I68252
sS'bartenders'
p3977
I66876
sS'wedding'
p3978
I100274
sS'bunch'
p3979
I74725
sS'lg'
p3980
I52066
sS'le'
p3981
I66144
sS'lb'
p3982
I94551
sS'la'
p3983
I44020
sS'decorum'
p3984
I91697
sS'winning'
p3985
I96378
sS'willing'
p3986
I108970
sS'<'
p3987
I42192
sS'tickled'
p3988
I92878
sS'greater'
p3989
I88368
sS'mention'
p3990
I106570
sS'cutting'
p3991
I37298
sS'kindness'
p3992
I13793
sS'day'
p3993
I107570
sS'10pm'
p3994
I27088
sS'airports'
p3995
I7831
sS'thrill'
p3996
I104639
sS'warned'
p3997
I16831
sS'l2'
p3998
I17664
sS'strip'
p3999
I51732
sS'pantry'
p4000
I31925
sS'junkie'
p4001
I17112
sS'marley'
p4002
I99170
sS'rex'
p4003
I76775
sS'flushing'
p4004
I38560
sS'electronics'
p4005
I24480
sS'red'
p4006
I88380
sS'586'
p4007
I103858
sS'approached'
p4008
I58475
sS'frank'
p4009
I59814
sS'midcentury'
p4010
I3860
sS'airfare'
p4011
I33212
sS'afterward'
p4012
I59745
sS'interaction'
p4013
I71066
sS'south'
p4014
I62953
sS'rudely'
p4015
I39950
sS'finest'
p4016
I106384
sS'cofee'
p4017
I99556
sS'guidebook'
p4018
I68782
sS'lounging'
p4019
I87259
sS'reliable'
p4020
I105508
sS'sadly'
p4021
I62563
sS'laps'
p4022
I94454
sS'establishments'
p4023
I99150
sS'pakistani'
p4024
I57425
sS'gear'
p4025
I54690
sS'completed'
p4026
I67666
sS'nobody'
p4027
I11933
sS'environmental'
p4028
I75427
sS'musium'
p4029
I30913
sS'loved'
p4030
I108253
sS'glamorous'
p4031
I89181
sS'furnishings'
p4032
I108861
sS'ballard'
p4033
I46323
sS'pointers'
p4034
I74856
sS'shampoo'
p4035
I69585
sS'compensation'
p4036
I5205
sS'loves'
p4037
I44060
sS'lover'
p4038
I64483
sS'flashes'
p4039
I75216
sS'tidy'
p4040
I108602
sS'comfortable'
p4041
I108729
sS'comfortably'
p4042
I39995
sS'have'
p4043
I109333
sS'apparently'
p4044
I49117
sS'min'
p4045
I7093
sS'sevice'
p4046
I25672
sS'davies'
p4047
I96772
sS'parks'
p4048
I107648
sS'chaise'
p4049
I46600
sS'unless'
p4050
I92301
sS'eight'
p4051
I23437
sS'peppered'
p4052
I28001
sS'stranded'
p4053
I41479
sS'request'
p4054
I88689
sS'nordstroms'
p4055
I35081
sS'absurd'
p4056
I31903
sS'referre'
p4057
I69649
sS'rendezvous'
p4058
I88867
sS'occasion'
p4059
I88526
sS'continential'
p4060
I50690
sS'normally'
p4061
I89756
sS'selection'
p4062
I106010
sS'resturants'
p4063
I94923
sS'kits'
p4064
I67706
sS'staff'
p4065
I109470
sS'inspiring'
p4066
I84924
sS'grabbed'
p4067
I94651
sS'knowledge'
p4068
I49790
sS'entore'
p4069
I63050
sS'controls'
p4070
I76709
sS'roadtrip'
p4071
I40955
sS'betsy'
p4072
I68698
sS'photographs'
p4073
I14850
sS'thouroughly'
p4074
I57850
sS'exceptional'
p4075
I102584
sS'wonderfull'
p4076
I58720
sS'unbeatable'
p4077
I105212
sS'coworker'
p4078
I79231
sS'perfection'
p4079
I103535
sS'areas'
p4080
I108955
sS'roomservice'
p4081
I10899
sS'teams'
p4082
I30396
sS'fixed'
p4083
I106974
sS'gibson'
p4084
I21298
sS'becuse'
p4085
I437
sS'135'
p4086
I98492
sS'exists'
p4087
I3553
sS'national'
p4088
I13999
sS'enhanced'
p4089
I18242
sS'trolleyed'
p4090
I41724
sS'awaits'
p4091
I81636
sS'attempting'
p4092
I103642
sS'routine'
p4093
I92104
sS'progress'
p4094
I4047
sS'unbelieveable'
p4095
I68557
sS'acessible'
p4096
I13017
sS'instant'
p4097
I62220
sS'taking'
p4098
I107908
sS'equal'
p4099
I71955
sS'agree'
p4100
I97857
sS'assure'
p4101
I107623
sS'attributes'
p4102
I106947
sS'passing'
p4103
I29190
sS'otherwise'
p4104
I48956
sS'comment'
p4105
I66565
sS'vent'
p4106
I45869
sS'commend'
p4107
I78477
sS'honeysuckle'
p4108
I80705
sS'ohh'
p4109
I71440
sS'tremendous'
p4110
I52512
sS'teamwork'
p4111
I89008
sS'upbeat'
p4112
I73672
sS'define'
p4113
I75172
sS'perplexed'
p4114
I53668
sS'finishes'
p4115
I38797
sS'overwhelmingly'
p4116
I100046
sS'climate'
p4117
I76708
sS'finished'
p4118
I104502
sS'bulb'
p4119
I55831
sS'general'
p4120
I31431
sS'multi'
p4121
I101139
sS'welcoming'
p4122
I106294
sS'plain'
p4123
I45878
sS'homey'
p4124
I99900
sS'appearance'
p4125
I10869
sS'tshirt'
p4126
I9880
sS'value'
p4127
I93382
sS'frustrating'
p4128
I91277
sS'amenity'
p4129
I109079
sS'almost'
p4130
I98651
sS'helped'
p4131
I99940
sS'arrangements'
p4132
I102833
sS'closets'
p4133
I55749
sS'watched'
p4134
I80763
sS'crash'
p4135
I40945
sS'participating'
p4136
I99966
sS'productivity'
p4137
I72074
sS')'
p4138
I107870
sS'landmarks'
p4139
I105198
sS'hare'
p4140
I55304
sS'shuttle'
p4141
I27104
sS'garish'
p4142
I59054
sS'caters'
p4143
I45145
sS'sauna'
p4144
I105621
sS'32in'
p4145
I101135
sS'sisters'
p4146
I99445
sS'croissants'
p4147
I102695
sS'numbered'
p4148
I22869
sS'center'
p4149
I108878
sS'pampered'
p4150
I100460
sS'thought'
p4151
I97870
sS'sets'
p4152
I14272
sS'position'
p4153
I51473
sS'raving'
p4154
I23750
sS'floored'
p4155
I82301
sS'usual'
p4156
I108462
sS'stores'
p4157
I104699
sS'barking'
p4158
I108334
sS'proximity'
p4159
I108540
sS'executive'
p4160
I97371
sS'seats'
p4161
I28845
sS'tone'
p4162
I14274
sS'30am'
p4163
I45950
sS'lake'
p4164
I109197
sS'recommending'
p4165
I100921
sS'add'
p4166
I103312
sS'1112'
p4167
I6573
sS'raved'
p4168
I87870
sS'match'
p4169
I26160
sS'resolved'
p4170
I4071
sS'everthing'
p4171
I23200
sS'fyi'
p4172
I56248
sS'dryer'
p4173
I87112
sS'like'
p4174
I109483
sS'success'
p4175
I73248
sS'housekeeper'
p4176
I8584
sS'conrad'
p4177
I79797
sS'soft'
p4178
I108054
sS'italian'
p4179
I108940
sS'accessible'
p4180
I77762
sS'classical'
p4181
I49071
sS'hair'
p4182
I87111
sS'recommendation'
p4183
I107867
sS'stuffy'
p4184
I92497
sS'happens'
p4185
I88507
sS'aesthetically'
p4186
I25143
sS'esp'
p4187
I26213
sS'bustling'
p4188
I31406
sS'assuming'
p4189
I28520
sS'chains'
p4190
I64848
sS'noise'
p4191
I76906
sS'oiled'
p4192
I105796
sS'stellar'
p4193
I42352
sS'host'
p4194
I99222
sS'although'
p4195
I104664
sS'hospitable'
p4196
I88405
sS'panel'
p4197
I89654
sS'about'
p4198
I109077
sS'actual'
p4199
I97885
sS'boards'
p4200
I108476
sS'mastiff'
p4201
I47829
sS'smartly'
p4202
I60236
sS'flaky'
p4203
I57418
sS'introduced'
p4204
I67889
sS'rendered'
p4205
I94735
sS'!)'
p4206
I89061
sS'functional'
p4207
I101772
sS'!.'
p4208
I25963
sS'postitive'
p4209
I71072
sS'revolve'
p4210
I49312
sS'legends'
p4211
I237
sS'brides'
p4212
I86349
sS'vegetables'
p4213
I49435
sS'biggest'
p4214
I106079
sS'buy'
p4215
I27221
sS'bus'
p4216
I72488
sS'brand'
p4217
I107374
sS'but'
p4218
I109230
sS'wise'
p4219
I5560
sS'dangerous'
p4220
I48475
sS'j'
p4221
I84912
sS'minutes'
p4222
I106139
sS'pin'
p4223
I5488
sS'brochures'
p4224
I36806
sS'pie'
p4225
I736
sS'campus'
p4226
I58078
sS'48'
p4227
I51912
sS'49'
p4228
I41131
sS'dressed'
p4229
I78595
sS'45'
p4230
I66377
sS'oak'
p4231
I10609
sS'detail'
p4232
I108726
sS'40'
p4233
I103474
sS'41'
p4234
I44418
sS'granite'
p4235
I91378
sS'dresser'
p4236
I68195
sS'draught'
p4237
I13242
sS'bundle'
p4238
I50423
sS'godsend'
p4239
I54476
sS'acknowledgment'
p4240
I15829
sS'westfield'
p4241
I23573
sS'baked'
p4242
I65409
sS'8th'
p4243
I42901
sS'limited'
p4244
I81157
sS'sleek'
p4245
I108854
sS'facilities'
p4246
I103289
sS'sleep'
p4247
I107109
sS'martinis'
p4248
I64447
sS'hate'
p4249
I98906
sS'trolley'
p4250
I40840
sS'cushy'
p4251
I21507
sS'whatsoever'
p4252
I48154
sS'under'
p4253
I71409
sS'luxirious'
p4254
I58056
sS'@'
p4255
I56422
sS'rise'
p4256
I9449
sS'housecleaning'
p4257
I21177
sS'fishbowl'
p4258
I64072
sS'every'
p4259
I109078
sS'jack'
p4260
I72765
sS'fireplace'
p4261
I97600
sS'encounter'
p4262
I100054
sS'school'
p4263
I2142
sS'venue'
p4264
I98226
sS'commute'
p4265
I104867
sS'guiding'
p4266
I95236
sS'enjoy'
p4267
I100068
sS'consistent'
p4268
I9695
sS'weddings'
p4269
I108147
sS'feathers'
p4270
I87632
sS'direct'
p4271
I58178
sS'surrounding'
p4272
I102571
sS'street'
p4273
I109050
sS'shining'
p4274
I72802
sS'blue'
p4275
I100372
sS'selected'
p4276
I26617
sS'supplied'
p4277
I100791
sS'conduct'
p4278
I60003
sS'supplies'
p4279
I73433
sS'affinia'
p4280
I69255
sS'stared'
p4281
I85615
sS'ramps'
p4282
I19269
sS'socialize'
p4283
I79436
sS'beck'
p4284
I108513
sS'studio'
p4285
I3845
sS'path'
p4286
I93804
sS'masseurs'
p4287
I106178
sS'luggage'
p4288
I99876
sS'leaves'
p4289
I104483
sS'changed'
p4290
I66077
sS'museums'
p4291
I109060
sS'jogging'
p4292
I93803
sS'midway'
p4293
I104863
sS'ventured'
p4294
I59169
sS'ambulances'
p4295
I4851
sS'julie'
p4296
I38967
sS'meats'
p4297
I50386
sS'would'
p4298
I109361
sS'hospital'
p4299
I84311
sS'asset'
p4300
I25624
sS'25th'
p4301
I44342
sS'breathe'
p4302
I43086
sS'selcted'
p4303
I68133
sS'phone'
p4304
I84678
sS'excellent'
p4305
I108655
sS'outdated'
p4306
I40893
sS'must'
p4307
I108663
sS'me'
p4308
I109261
sS'join'
p4309
I81692
sS'palomar'
p4310
I47620
sS'cheapest'
p4311
I81720
sS'mo'
p4312
I5938
sS'mi'
p4313
I26081
sS'cancellations'
p4314
I27093
sS'mk'
p4315
I8158
sS'mr'
p4316
I47399
sS'my'
p4317
I109263
sS'swipes'
p4318
I9112
sS'decorative'
p4319
I98577
sS'overheard'
p4320
I39607
sS'magnificient'
p4321
I103176
sS'scheduling'
p4322
I59533
sS'times'
p4323
I100041
sS'guarantee'
p4324
I54265
sS'ceremony'
p4325
I86759
sS'end'
p4326
I104614
sS'enquiry'
p4327
I8947
sS'returning'
p4328
I101267
sS'eno'
p4329
I105048
sS'adjacent'
p4330
I100604
sS'toxic'
p4331
I48619
sS'charging'
p4332
I33008
sS'description'
p4333
I48277
sS'mess'
p4334
I61205
sS'imaginable'
p4335
I31875
sS'sparkled'
p4336
I95429
sS'jumping'
p4337
I66703
sS'sparkles'
p4338
I2892
sS'croissant'
p4339
I1925
sS'pullout'
p4340
I36031
sS'dble'
p4341
I39762
sS'jungle'
p4342
I14077
sS'enter'
p4343
I92485
sS'over'
p4344
I108494
sS'jacuzzi'
p4345
I86076
sS'london'
p4346
I54741
sS'oven'
p4347
I37274
sS'futons'
p4348
I5556
sS'expectations'
p4349
I108669
sS'imo'
p4350
I30634
sS'writing'
p4351
I71521
sS'walkable'
p4352
I41174
sS'400'
p4353
I56148
sS'sofital'
p4354
I56666
sS'nightcap'
p4355
I42751
sS'tourist'
p4356
I84157
sS'manicure'
p4357
I102134
sS'plates'
p4358
I36691
sS'rental'
p4359
I104336
sS'regularly'
p4360
I808
sS'each'
p4361
I108836
sS'signing'
p4362
I34520
sS'mahogany'
p4363
I105122
sS'gymnasium'
p4364
I103853
sS'waffle'
p4365
I32948
sS'fairmont'
p4366
I82757
sS'sears'
p4367
I95984
sS'saturday'
p4368
I91067
sS'driving'
p4369
I12310
sS'god'
p4370
I67147
sS'motel'
p4371
I103464
sS'laid'
p4372
I94483
sS'millennium'
p4373
I109200
sS'nite'
p4374
I42854
sS'conceirge'
p4375
I2266
sS'got'
p4376
I104900
sS'newly'
p4377
I56152
sS'responsibily'
p4378
I48687
sS'arizona'
p4379
I67348
sS'associate'
p4380
I84346
sS'free'
p4381
I106164
sS'wanted'
p4382
I109045
sS'inexpensive'
p4383
I85809
sS'days'
p4384
I107278
sS'soda'
p4385
I89577
sS'wowed'
p4386
I50531
sS'onto'
p4387
I104331
sS'already'
p4388
I108478
sS'attractions'
p4389
I108199
sS'awoke'
p4390
I101373
sS'insulation'
p4391
I36928
sS'retreats'
p4392
I105159
sS'toy'
p4393
I73023
sS'guinness'
p4394
I13245
sS'top'
p4395
I106913
sS'confirming'
p4396
I22085
sS'ton'
p4397
I69341
sS'too'
p4398
I108542
sS'rockin'
p4399
I72536
sS'gowns'
p4400
I2740
sS'toe'
p4401
I84130
sS'curtains'
p4402
I105126
sS'ceiling'
p4403
I107916
sS'serve'
p4404
I102305
sS'took'
p4405
I109283
sS'incur'
p4406
I52736
sS'wardrobe'
p4407
I37239
sS'reclining'
p4408
I85984
sS'frankly'
p4409
I99006
sS'final'
p4410
I21976
sS'10th'
p4411
I89261
sS'bridge'
p4412
I79194
sS'ran'
p4413
I105791
sS'talking'
p4414
I93799
sS'seminar'
p4415
I91057
sS'relatively'
p4416
I102074
sS'1968'
p4417
I46850
sS'thoroughly'
p4418
I93169
sS'-'
p4419
I108887
sS'snow'
p4420
I20523
sS'elegance'
p4421
I106402
sS'oriented'
p4422
I75312
sS'client'
p4423
I97631
sS'greatest'
p4424
I90106
sS'though'
p4425
I108260
sS'plenty'
p4426
I93535
sS'stood'
p4427
I97479
sS'treats'
p4428
I74529
sS'flow'
p4429
I80969
sS'orderly'
p4430
I94837
sS'reputation'
p4431
I105851
sS'sheratons'
p4432
I43956
sS'sanctuary'
p4433
I93219
sS'overpriced'
p4434
I108548
sS'contacted'
p4435
I73212
sS'queen'
p4436
I109391
sS'pops'
p4437
I51752
sS'colors'
p4438
I100195
sS'radio'
p4439
I76736
sS'earth'
p4440
I102490
sS'availability'
p4441
I102679
sS'delays'
p4442
I8523
sS'refreshment'
p4443
I100556
sS'lodge'
p4444
I58045
sS'shoeshine'
p4445
I63288
sS'catered'
p4446
I106411
sS'watch'
p4447
I102326
sS'despite'
p4448
I106753
sS'report'
p4449
I76306
sS'knocks'
p4450
I106182
sS'considerate'
p4451
I98623
sS'contemperary'
p4452
I65622
sS'public'
p4453
I80972
sS'twice'
p4454
I106443
sS'swept'
p4455
I109397
sS'liquor'
p4456
I39645
sS'resist'
p4457
I89694
sS'restaraunts'
p4458
I13361
sS'immaculately'
p4459
I90903
sS'finger'
p4460
I68123
sS'hopefully'
p4461
I38098
sS'focal'
p4462
I104370
sS'approach'
p4463
I60295
sS'herding'
p4464
I103594
sS'confusion'
p4465
I55500
sS'however'
p4466
I103627
sS'boss'
p4467
I105866
sS'toothbrush'
p4468
I105828
sS'aquarium'
p4469
I93179
sS'bose'
p4470
I78535
sS'sipped'
p4471
I80759
sS'improve'
p4472
I28246
sS'faced'
p4473
I40706
sS'fault'
p4474
I44503
sS'facet'
p4475
I21407
sS'players'
p4476
I102230
sS'chandeliers'
p4477
I2897
sS'games'
p4478
I54636
sS'faces'
p4479
I104044
sS'expense'
p4480
I52561
sS'towels'
p4481
I105379
sS'majestic'
p4482
I95001
sS'trust'
p4483
I69684
sS'naperville'
p4484
I101625
sS'conference'
p4485
I103288
sS'bathroom'
p4486
I107242
sS'incomparable'
p4487
I102567
sS'been'
p4488
I109488
sS'quickly'
p4489
I101318
sS'confident'
p4490
I65379
sS'beer'
p4491
I90632
sS'expected'
p4492
I96440
sS'loft'
p4493
I60820
sS'catch'
p4494
I30844
sS'patronizing'
p4495
I10844
sS'definetly'
p4496
I85283
sS'n'
p4497
I40780
sS'dept'
p4498
I11518
sS'weren'
p4499
I101993
sS'procedure'
p4500
I27810
sS'accessories'
p4501
I63405
sS'exterior'
p4502
I19747
sS'snobbery'
p4503
I9894
sS'sofas'
p4504
I47715
sS'suggest'
p4505
I100610
sS'beside'
p4506
I54381
sS'drawback'
p4507
I27298
sS'several'
p4508
I108197
sS'pampering'
p4509
I81630
sS'"!'
p4510
I107891
sS'",'
p4511
I60548
sS'".'
p4512
I99488
sS'pick'
p4513
I96182
sS'greeted'
p4514
I108711
sS'whenver'
p4515
I63616
sS'positives'
p4516
I69071
sS'insisted'
p4517
I83710
sS'mentioning'
p4518
I101711
sS'shortly'
p4519
I11998
sS'charlie'
p4520
I40051
sS'fusion'
p4521
I27265
sS'ocean'
p4522
I77440
sS'kimptonkids'
p4523
I62871
sS'luxurous'
p4524
I24610
sS'mother'
p4525
I106038
sS'romanesque'
p4526
I105116
sS'laptop'
p4527
I101751
sS'thumbs'
p4528
I98392
sS'roomkeeping'
p4529
I70667
sS'furry'
p4530
I4452
sS'technological'
p4531
I97865
sS'consideration'
p4532
I2162
sS'gave'
p4533
I103039
sS'perfecty'
p4534
I83456
sS'cultural'
p4535
I58062
sS'judge'
p4536
I91403
sS'advanced'
p4537
I24840
sS'apart'
p4538
I94466
sS'59'
p4539
I30081
sS'gift'
p4540
I103042
sS'mansions'
p4541
I38411
sS'55'
p4542
I74478
sS'51'
p4543
I56061
sS'50'
p4544
I38667
sS'53'
p4545
I104807
sS'specific'
p4546
I84499
sS'informative'
p4547
I35612
sS'offices'
p4548
I26582
sS'officer'
p4549
I43314
sS'reams'
p4550
I77978
sS'valence'
p4551
I40685
sS'accomadating'
p4552
I3685
sS'kiehls'
p4553
I4250
sS'proudly'
p4554
I68140
sS'clubs'
p4555
I103392
sS'election'
p4556
I954
sS'escape'
p4557
I109507
sS'perfected'
p4558
I83982
sS'doorstep'
p4559
I87754
sS'ich'
p4560
I53548
sS'ear'
p4561
I17634
sS'ice'
p4562
I107139
sS'everything'
p4563
I109353
sS'christmas'
p4564
I57044
sS'booking'
p4565
I90410
sS'cora'
p4566
I38961
sS'corn'
p4567
I59332
sS'discount'
p4568
I104237
sS'lamps'
p4569
I55823
sS'panhandlers'
p4570
I48080
sS'plug'
p4571
I29023
sS'cabbed'
p4572
I41727
sS'dinned'
p4573
I105518
sS'attacks'
p4574
I82112
sS'bedlinens'
p4575
I25456
sS'surround'
p4576
I57629
sS'dinner'
p4577
I107818
sS'plus'
p4578
I104470
sS'sept'
p4579
I24418
sS'destination'
p4580
I106866
sS'bath'
p4581
I106250
sS'accommodate'
p4582
I108890
sS'tribune'
p4583
I53848
sS'cubicle'
p4584
I52587
sS'nuisance'
p4585
I33739
sS'why'
p4586
I104302
sS'stuck'
p4587
I79078
sS'head'
p4588
I101349
sS'medium'
p4589
I11534
sS'gorgeous'
p4590
I109407
sS'wireless'
p4591
I108275
sS'buckingham'
p4592
I58136
sS'heat'
p4593
I37281
sS'hear'
p4594
I97915
sS'portions'
p4595
I109346
sS'bargain'
p4596
I67246
sS'adorn'
p4597
I15220
sS'brightly'
p4598
I79821
sS'trio'
p4599
I2315
sS'shined'
p4600
I63284
sS'sometime'
p4601
I37268
sS'annoying'
p4602
I48135
sS'check'
p4603
I109294
sS'willingly'
p4604
I59463
sS'no'
p4605
I108725
sS'tip'
p4606
I55840
sS'til'
p4607
I24534
sS'tim'
p4608
I76352
sS'setting'
p4609
I97317
sS'soundly'
p4610
I61184
sS'tie'
p4611
I88044
sS'depot'
p4612
I37004
sS'nt'
p4613
I12289
sS'squeals'
p4614
I1645
sS'picture'
p4615
I87238
sS'tasteful'
p4616
I92518
sS'uniformly'
p4617
I26640
sS'scratchy'
p4618
I61167
sS'younger'
p4619
I73113
sS'longer'
p4620
I100947
sS'landed'
p4621
I46474
sS'drycleaning'
p4622
I103274
sS'neighbors'
p4623
I27048
sS'remarkable'
p4624
I81932
sS'celebs'
p4625
I2907
sS'ouch'
p4626
I30071
sS'leads'
p4627
I42170
sS'comments'
p4628
I39608
sS'michicgan'
p4629
I43514
sS'remarkably'
p4630
I59212
sS'essentials'
p4631
I57514
sS'environment'
p4632
I77149
sS'charge'
p4633
I89556
sS'advantage'
p4634
I109284
sS'unfamiliar'
p4635
I95151
sS'artwork'
p4636
I95701
sS'cook'
p4637
I90595
sS'emphasized'
p4638
I76262
sS'cool'
p4639
I93182
sS'clouds'
p4640
I64775
sS'impressive'
p4641
I94738
sS'level'
p4642
I108910
sS'posts'
p4643
I2007
sS'brother'
p4644
I34223
sS'standards'
p4645
I101900
sS'showplaces'
p4646
I80987
sS'quick'
p4647
I98342
sS'slower'
p4648
I52796
sS'jaymes'
p4649
I46441
sS'foodmarkets'
p4650
I36403
sS'dried'
p4651
I36769
sS'comforting'
p4652
I94844
sS'pedi'
p4653
I98474
sS'drinks'
p4654
I107632
sS'stately'
p4655
I75689
sS'binnies'
p4656
I37002
sS'goes'
p4657
I89053
sS'beautifull'
p4658
I58714
sS'water'
p4659
I104832
sS'entertain'
p4660
I97608
sS'baseball'
p4661
I75644
sS'groups'
p4662
I14515
sS'unfinished'
p4663
I105957
sS'thirty'
p4664
I1696
sS'rethink'
p4665
I89291
sS'hospitality'
p4666
I97942
sS'weird'
p4667
I45911
sS'lowers'
p4668
I26353
sS'mccormick'
p4669
I58102
sS'hopeful'
p4670
I105670
sS'graduated'
p4671
I79306
sS'1st'
p4672
I79408
sS'handled'
p4673
I98255
sS'sports'
p4674
I72493
sS'iphone'
p4675
I73955
sS'memory'
p4676
I91126
sS'today'
p4677
I4613
sS'travling'
p4678
I68476
sS'chocolate'
p4679
I105561
sS'casey'
p4680
I105741
sS'dismal'
p4681
I64834
sS'cases'
p4682
I53794
sS'photocopying'
p4683
I106205
sS'districts'
p4684
I108016
sS'judy'
p4685
I39012
sS'shedd'
p4686
I93151
sS'trump'
p4687
I50909
sS'figure'
p4688
I29927
sS'downfall'
p4689
I82672
sS'concierge'
p4690
I108618
sS'dropped'
p4691
I97768
sS'reece'
p4692
I16470
sS'secured'
p4693
I5858
sS'advertized'
p4694
I8925
sS'1'
p4695
I100136
sS'zest'
p4696
I106587
sS'salts'
p4697
I34622
sS'ensure'
p4698
I80067
sS'steppers'
p4699
I23375
sS'bachorette'
p4700
I49482
sS'unbelievable'
p4701
I44232
sS'cocktail'
p4702
I101611
sS'huge'
p4703
I104469
sS'needs'
p4704
I106735
sS'4th'
p4705
I89258
sS'tipped'
p4706
I51498
sS'renovation'
p4707
I38335
sS'unbelievably'
p4708
I62779
sS'joint'
p4709
I10305
sS'curry'
p4710
I105065
sS'purification'
p4711
I85216
sS'inform'
p4712
I81347
sS'exclusive'
p4713
I60271
sS'acts'
p4714
I49031
sS'furnished'
p4715
I108838
sS'mainly'
p4716
I59168
sS'dreading'
p4717
I97693
sS'swank'
p4718
I56073
sS'appetizers'
p4719
I88938
sS'offers'
p4720
I108590
sS'happened'
p4721
I6539
sS'superlatives'
p4722
I3776
sS'execute'
p4723
I6172
sS'name'
p4724
I100117
sS'opera'
p4725
I101488
sS'sensibilities'
p4726
I3946
sS'upto'
p4727
I77937
sS'weighted'
p4728
I16847
sS'catching'
p4729
I36965
sS'intended'
p4730
I65775
sS'ultimately'
p4731
I104341
sS'factors'
p4732
I103128
sS'sundecks'
p4733
I87722
sS'factory'
p4734
I39062
sS'someplace'
p4735
I102887
sS'attracted'
p4736
I109251
sS'attended'
p4737
I96423
sS'patios'
p4738
I46411
sS'oasis'
p4739
I5363
sS'accommodation'
p4740
I51468
sS'extradionary'
p4741
I19553
sS'flare'
p4742
I96239
sS'calories'
p4743
I89681
sS'turn'
p4744
I60248
sS'yum'
p4745
I83372
sS'lasalle'
p4746
I46782
sS'spectacularly'
p4747
I98795
sS'soaring'
p4748
I108819
sS'array'
p4749
I105534
sS'hairdressers'
p4750
I10371
sS'george'
p4751
I18861
sS'millions'
p4752
I90498
sS'rented'
p4753
I69626
sS'given'
p4754
I88535
sS'molded'
p4755
I71407
sS'district'
p4756
I109057
sS'virgin'
p4757
I54733
sS'resonable'
p4758
I7669
sS'plastic'
p4759
I72979
sS'resonably'
p4760
I100171
sS'convention'
p4761
I61878
sS'white'
p4762
I100374
sS'circa'
p4763
I46849
sS'gives'
p4764
I105810
sS'exploring'
p4765
I107976
sS'season'
p4766
I8821
sS'alas'
p4767
I56969
sS'doormen'
p4768
I107059
sS'wide'
p4769
I65930
sS'unfortunately'
p4770
I103609
sS'require'
p4771
I32299
sS'aesthetic'
p4772
I108424
sS'cards'
p4773
I103648
sS'dissapointed'
p4774
I86353
sS'pre'
p4775
I68769
sS'hershey'
p4776
I6999
sS'reno'
p4777
I47790
sS'ant'
p4778
I488
sS'rent'
p4779
I108486
sS'thingsthis'
p4780
I98532
sS'any'
p4781
I109484
sS'marathon'
p4782
I831
sS'dining'
p4783
I108139
sS'emphasis'
p4784
I71898
sS'urge'
p4785
I68228
sS'sure'
p4786
I108626
sS'multiple'
p4787
I108132
sS'visitors'
p4788
I87955
sS'icon'
p4789
I29102
sS'26th'
p4790
I52383
sS'considered'
p4791
I44105
sS'seafood'
p4792
I68291
sS'proud'
p4793
I88125
sS'hungry'
p4794
I94178
sS'cheap'
p4795
I107164
sS'spaces'
p4796
I80973
sS'spacey'
p4797
I69667
sS'state'
p4798
I109049
sS'wood'
p4799
I78838
sS'partake'
p4800
I59591
sS'dreaded'
p4801
I84372
sS'centrally'
p4802
I83971
sS'lighted'
p4803
I105499
sS'jazz'
p4804
I91564
sS'clerks'
p4805
I107050
sS'regarding'
p4806
I60150
sS'topnotch'
p4807
I10295
sS'kickbacks'
p4808
I47742
sS'picnic'
p4809
I107420
sS'encourages'
p4810
I4017
sS'connections'
p4811
I79671
sS'college'
p4812
I97260
sS'1927'
p4813
I1593
sS'travelzoo'
p4814
I34351
sS'managing'
p4815
I104542
sS'review'
p4816
I105168
sS'opening'
p4817
I32290
sS'definite'
p4818
I60763
sS'outside'
p4819
I108267
sS'nooks'
p4820
I47708
sS'arrival'
p4821
I106398
sS'guitar'
p4822
I74650
sS'inclusions'
p4823
I9333
sS'diners'
p4824
I105919
sS'cities'
p4825
I90983
sS'come'
p4826
I104157
sS'acquiring'
p4827
I59709
sS'amalfi'
p4828
I103951
sS'quiet'
p4829
I101861
sS'duty'
p4830
I98166
sS'afterwards'
p4831
I105615
sS'color'
p4832
I102649
sS'period'
p4833
I36318
sS'satisfaction'
p4834
I95834
sS'65'
p4835
I38670
sS'68'
p4836
I78911
sS'69'
p4837
I27438
sS'noisy'
p4838
I56127
sS'turkey'
p4839
I105063
sS'peaceful'
p4840
I105928
sS'hardly'
p4841
I107227
sS'direction'
p4842
I89139
sS'andrew'
p4843
I20301
sS'160th'
p4844
I72769
sS'eaters'
p4845
I70197
sS'ashtrays'
p4846
I24341
sS'paying'
p4847
I77293
sS'myself'
p4848
I99989
sS'cask'
p4849
I24312
sS'pricepoint'
p4850
I26216
sS'shops'
p4851
I106722
sS'slippers'
p4852
I103544
sS'coupled'
p4853
I99925
sS'knikerbocker'
p4854
I38472
sS'someone'
p4855
I100231
sS'participant'
p4856
I91002
sS'breathtakingly'
p4857
I101352
sS'granted'
p4858
I68538
sS'bowl'
p4859
I64313
sS'trip'
p4860
I107858
sS'frequented'
p4861
I4775
sS'events'
p4862
I108150
sS'week'
p4863
I100980
sS'downloads'
p4864
I72745
sS'driver'
p4865
I86795
sS'muffled'
p4866
I76908
sS'director'
p4867
I28236
sS'persons'
p4868
I1739
sS'changing'
p4869
I33621
sS'eucalyptus'
p4870
I98503
sS'purposeful'
p4871
I3671
sS'magical'
p4872
I94919
sS'without'
p4873
I107933
sS'relief'
p4874
I104505
sS'modem'
p4875
I69848
sS'when'
p4876
I109399
sS'guided'
p4877
I67881
sS'lavish'
p4878
I104064
sS'harrison'
p4879
I552
sS'captured'
p4880
I100401
sS'attitute'
p4881
I21997
sS'ny'
p4882
I59316
sS'rose'
p4883
I79543
sS'seems'
p4884
I99208
sS'rosa'
p4885
I84348
sS'lets'
p4886
I96799
sS'poised'
p4887
I63562
sS'styles'
p4888
I97176
sS'reassured'
p4889
I54755
sS'fridge'
p4890
I55243
sS'loaned'
p4891
I9501
sS'topper'
p4892
I108843
sS'accepted'
p4893
I88439
sS'furniture'
p4894
I108925
sS'towel'
p4895
I90296
sS'oddly'
p4896
I31954
sS'sanity'
p4897
I42162
sS'tower'
p4898
I95985
sS'reduced'
p4899
I54665
sS'table'
p4900
I101323
sS'intact'
p4901
I18600
sS'redeeming'
p4902
I13765
sS'provided'
p4903
I109355
sS'caribbean'
p4904
I68313
sS'mood'
p4905
I100383
sS'stops'
p4906
I44703
sS'moon'
p4907
I76593
sS'rooming'
p4908
I104589
sS'provides'
p4909
I106614
sS'porter'
p4910
I88053
sS'quikbook'
p4911
I7280
sS'inspect'
p4912
I68230
sS'kleenex'
p4913
I32391
sS'foodcourt'
p4914
I37333
sS'on'
p4915
I109357
sS'ok'
p4916
I48661
sS'oj'
p4917
I32874
sS'oh'
p4918
I105569
sS'of'
p4919
I109347
sS'shrimp'
p4920
I67228
sS'stand'
p4921
I27252
sS'or'
p4922
I108895
sS'ladies'
p4923
I18124
sS'communication'
p4924
I103280
sS'lakeview'
p4925
I45688
sS'accounts'
p4926
I65767
sS'lastly'
p4927
I87913
sS'befitted'
p4928
I8819
sS'buds'
p4929
I92881
sS'stickler'
p4930
I34785
sS'there'
p4931
I108870
sS'cultured'
p4932
I80107
sS'energy'
p4933
I19397
sS'tranquility'
p4934
I63731
sS'regard'
p4935
I48270
sS'amongst'
p4936
I100567
sS'cabinet'
p4937
I40715
sS'promote'
p4938
I38822
sS'1802'
p4939
I17449
sS'nightlife'
p4940
I88872
sS'sullivans'
p4941
I50034
sS'strongly'
p4942
I107467
sS'toilet'
p4943
I78986
sS'cinema'
p4944
I43547
sS'taste'
p4945
I105138
sS'tasty'
p4946
I101836
sS'encompass'
p4947
I27205
sS'incorrect'
p4948
I40852
sS'stumbled'
p4949
I75548
sS'5'
p4950
I108265
sS'wonderbar'
p4951
I69385
sS'requested'
p4952
I97138
sS'pillows'
p4953
I103576
sS'separate'
p4954
I95725
sS'reccommend'
p4955
I58433
sS';))'
p4956
I3491
sS'includes'
p4957
I103215
sS'included'
p4958
I94165
sS'booked'
p4959
I98325
sS'favortie'
p4960
I87162
sS'calls'
p4961
I3081
sS'wife'
p4962
I107127
sS'wifi'
p4963
I107159
sS'websites'
p4964
I99289
sS'directory'
p4965
I28865
sS'all'
p4966
I108673
sS'kimpton'
p4967
I97815
sS'chinese'
p4968
I40636
sS'lack'
p4969
I26196
sS'dish'
p4970
I59343
sS'follow'
p4971
I47610
sS'everyones'
p4972
I97182
sS'apartment'
p4973
I97315
sS'sparkling'
p4974
I80765
sS'program'
p4975
I62872
sS'activities'
p4976
I108159
sS'fax'
p4977
I106202
sS'woman'
p4978
I92284
sS'egyptian'
p4979
I101106
sS'far'
p4980
I108101
sS'focus'
p4981
I59902
sS'fan'
p4982
I46939
sS'vacationing'
p4983
I99264
sS'sony'
p4984
I17919
sS'bubbles'
p4985
I47401
sS'mmmhh'
p4986
I8884
sS'treating'
p4987
I89397
sS'and'
p4988
I109494
sS'dovetailed'
p4989
I75429
sS'list'
p4990
I107695
sS'teh'
p4991
I3626
sS'pressue'
p4992
I26200
sS'ten'
p4993
I84718
sS'tea'
p4994
I104904
sS'rate'
p4995
I105266
sS'design'
p4996
I102632
sS'nbc'
p4997
I54016
sS'cheeses'
p4998
I50388
sS'what'
p4999
I108635
sS'imported'
p5000
I53317
sS'sun'
p5001
I87370
sS'sum'
p5002
I16998
sS'crust'
p5003
I57416
sS'brief'
p5004
I67593
sS'suv'
p5005
I16182
sS'version'
p5006
I66095
sS'multitude'
p5007
I90384
sS'tags'
p5008
I27215
sS'supposedly'
p5009
I7116
sS'shouldn'
p5010
I84392
sS'berkeley'
p5011
I53324
sS'directions'
p5012
I88540
sS'personable'
p5013
I71565
sS'pleasant'
p5014
I107804
sS'allows'
p5015
I70743
sS'upgraged'
p5016
I461
sS'options'
p5017
I107548
sS'thankfully'
p5018
I87114
sS'screens'
p5019
I25453
sS'snug'
p5020
I38584
sS'spaciousness'
p5021
I35193
sS'appliances'
p5022
I23866
sS'1900'
p5023
I88809
sS'munchies'
p5024
I46615
sS'donuts'
p5025
I47285
sS'faint'
p5026
I25430
sS'minor'
p5027
I108318
sS'flat'
p5028
I104111
sS'unprompted'
p5029
I41932
sS'knows'
p5030
I102297
sS'grabbing'
p5031
I1921
sS'stick'
p5032
I27311
sS'known'
p5033
I103816
sS'glad'
p5034
I105291
sS'v'
p5035
I24620
sS'excursion'
p5036
I79951
sS'computers'
p5037
I101172
sS'suberb'
p5038
I579
sS'chores'
p5039
I104488
sS'rather'
p5040
I104813
sS'breaking'
p5041
I100120
sS'motels'
p5042
I11956
sS'sandwich'
p5043
I11590
sS'orbitz'
p5044
I83292
sS'reflect'
p5045
I54811
sS'lighting'
p5046
I100377
sS'adventure'
p5047
I60279
sS'short'
p5048
I105639
sS'susan'
p5049
I101315
sS'departure'
p5050
I58640
sS'stash'
p5051
I69348
sS'perhaps'
p5052
I73879
sS'halibut'
p5053
I79365
sS'september'
p5054
I92348
sS'mission'
p5055
I75433
sS'avenue'
p5056
I106125
sS'style'
p5057
I101545
sS'healthclub'
p5058
I75879
sS'affina'
p5059
I12935
sS'resort'
p5060
I78362
sS'parts'
p5061
I84133
sS'ritzy'
p5062
I76824
sS'might'
p5063
I100713
sS'wouldn'
p5064
I91719
sS'return'
p5065
I107834
sS'generously'
p5066
I85084
sS'eclectic'
p5067
I101544
sS'hairdryer'
p5068
I20706
sS'bigger'
p5069
I80744
sS'instructions'
p5070
I29106
sS'marcus'
p5071
I11513
sS'refresh'
p5072
I38177
sS'accommodated'
p5073
I79455
sS'weight'
p5074
I104548
sS'needless'
p5075
I87250
sS'generation'
p5076
I16423
sS'colder'
p5077
I70562
sS'begain'
p5078
I8333
sS'modernized'
p5079
I97406
sS'expect'
p5080
I107370
sS'linens'
p5081
I101107
sS'health'
p5082
I97417
sS'hill'
p5083
I24263
sS'paradise'
p5084
I78894
sS'congenial'
p5085
I5304
sS'omar'
p5086
I49169
sS'friday'
p5087
I109297
sS'cookie'
p5088
I40459
sS'attendant'
p5089
I42941
sS'sidewalk'
p5090
I22253
sS'lag'
p5091
I99684
sS'thread'
p5092
I101103
sS'packege'
p5093
I80605
sS'consequence'
p5094
I2744
sS'fallen'
p5095
I43183
sS'webcams'
p5096
I4420
sS'dine'
p5097
I107601
sS'42in'
p5098
I5664
sS'feel'
p5099
I109386
sS'fancy'
p5100
I83367
sS'traveled'
p5101
I103982
sS'feet'
p5102
I98509
sS'fees'
p5103
I48963
sS'traveler'
p5104
I108217
sS'soaps'
p5105
I65114
sS'passes'
p5106
I59843
sS'story'
p5107
I24544
sS'"'
p5108
I109136
sS'temperature'
p5109
I24354
sS'gourmet'
p5110
I105536
sS'leading'
p5111
I3141
sS'interact'
p5112
I91426
sS'comfy'
p5113
I107526
sS'lobby'
p5114
I109086
sS'passed'
p5115
I82636
sS'store'
p5116
I45969
sS'attendants'
p5117
I67001
sS'option'
p5118
I90603
sS'pump'
p5119
I72051
sS'relieved'
p5120
I89628
sS'checklist'
p5121
I99465
sS'hotel'
p5122
I109485
sS'convinced'
p5123
I72288
sS'king'
p5124
I109389
sS'kind'
p5125
I98764
sS'double'
p5126
I107523
sS'stall'
p5127
I24498
sS'restful'
p5128
I107107
sS'dana'
p5129
I5842
sS'voucher'
p5130
I32838
sS'cleaner'
p5131
I4891
sS'uniforms'
p5132
I5477
sS'skyscrapers'
p5133
I106352
sS'outstanding'
p5134
I79158
sS'guestroom'
p5135
I81548
sS'architectes'
p5136
I66902
sS'cleaned'
p5137
I97529
sS'nights'
p5138
I109431
sS'freshener'
p5139
I32274
sS'moist'
p5140
I57412
sS'!).'
p5141
I109204
sS'finding'
p5142
I85265
sS'defintely'
p5143
I46560
sS'added'
p5144
I89546
sS'customize'
p5145
I67551
sS'reach'
p5146
I74086
sS'reunited'
p5147
I102762
sS'75'
p5148
I56034
sS'70'
p5149
I54495
sS'nothing'
p5150
I106030
sS'seasons'
p5151
I55767
sS'mineral'
p5152
I34621
sS'windows'
p5153
I85970
sS'traditional'
p5154
I93869
sS'notch'
p5155
I96853
sS'rocker'
p5156
I18833
sS'.).'
p5157
I73206
sS'.),'
p5158
I33415
sS'shouuld'
p5159
I33547
sS'cds'
p5160
I50162
sS'gilded'
p5161
I108816
sS'nevertheless'
p5162
I98165
sS'securing'
p5163
I77866
sS'penalty'
p5164
I86731
sS'hip'
p5165
I73345
sS'his'
p5166
I102754
sS'hit'
p5167
I89494
sS'compiled'
p5168
I60387
sS'banquet'
p5169
I70059
sS'activity'
p5170
I86087
sS'wrote'
p5171
I51593
sS'starwood'
p5172
I43971
sS'bars'
p5173
I108164
sS'art'
p5174
I101541
sS'dump'
p5175
I105766
sS'are'
p5176
I108968
sS'arm'
p5177
I78390
sS'learnt'
p5178
I75283
sS'various'
p5179
I71384
sS'numerous'
p5180
I101561
sS'41st'
p5181
I46497
sS'cancelling'
p5182
I51240
sS'solo'
p5183
I108892
sS'recently'
p5184
I108385
sS'initially'
p5185
I8563
sS'sold'
p5186
I55854
sS'attention'
p5187
I102576
sS'york'
p5188
I70993
sS'competent'
p5189
I76527
sS'condo'
p5190
I15088
sS'liquors'
p5191
I50112
sS'c'
p5192
I87040
sS'luxorious'
p5193
I63182
sS'became'
p5194
I52934
sS'finds'
p5195
I71953
sS'albeit'
p5196
I51973
sS'flies'
p5197
I105867
sS'reasons'
p5198
I92571
sS'smith'
p5199
I73191
sS'wastebasket'
p5200
I32397
sS'marveling'
p5201
I72383
sS'crispy'
p5202
I57420
sS'overlook'
p5203
I58336
sS'due'
p5204
I102613
sS'strategy'
p5205
I97612
sS'whom'
p5206
I89237
sS'pl'
p5207
I42999
sS'pm'
p5208
I56207
sS'refered'
p5209
I92047
sS'flight'
p5210
I98057
sS'buck'
p5211
I67290
sS'softest'
p5212
I79988
sS'cinch'
p5213
I67537
sS'demand'
p5214
I85250
sS'plasmas'
p5215
I34768
sS'plants'
p5216
I83434
sS'batch'
p5217
I41760
sS'theres'
p5218
I51538
sS'disappointing'
p5219
I26205
sS'rid'
p5220
I102153
sS'rib'
p5221
I41467
sS'lengthy'
p5222
I59738
sS'lengths'
p5223
I67691
sS'assuaged'
p5224
I99803
sS'peoples'
p5225
I11173
sS'9'
p5226
I52632
sS'advise'
p5227
I88061
sS'daughters'
p5228
I70679
sS'sliver'
p5229
I31626
sS'painless'
p5230
I98347
sS'holidays'
p5231
I105691
sS'arrived'
p5232
I107212
sS'janice'
p5233
I68552
sS'lower'
p5234
I30876
sS'equalled'
p5235
I3761
sS'try'
p5236
I109001
sS'depending'
p5237
I83923
sS'anybody'
p5238
I103890
sS'gawdy'
p5239
I48113
sS'oneway'
p5240
I20292
sS'aways'
p5241
I65610
sS'coplaint'
p5242
I23854
sS'birthday'
p5243
I72770
sS'questions'
p5244
I100711
sS'regardless'
p5245
I37830
sS'tables'
p5246
I72826
sS'workers'
p5247
I103479
sS'exclusively'
p5248
I48509
sS'complaint'
p5249
I106979
sS'complains'
p5250
I31136
sS'676'
p5251
I88244
sS'unlimited'
p5252
I86708
sS'skeptical'
p5253
I103445
sS'seperate'
p5254
I55209
sS'shaped'
p5255
I31955
sS'ignore'
p5256
I13292
sS'entice'
p5257
I59826
sS'arcitechusall'
p5258
I65656
sS'understood'
p5259
I4962
sS'marmalade'
p5260
I102704
sS'wonderland'
p5261
I8816
sS'newsletter'
p5262
I12955
sS'luxe'
p5263
I108814
sS'pros'
p5264
I51090
sS'singles'
p5265
I101217
sS'retro'
p5266
I100548
sS'tends'
p5267
I82630
sS'anne'
p5268
I71468
sS'?!?!?!?)'
p5269
I20785
sS'palmer'
p5270
I109243
sS'intense'
p5271
I17948
sS'mingled'
p5272
I60086
sS'kitchenette'
p5273
I36525
sS'completing'
p5274
I104538
sS'ordeal'
p5275
I55529
sS'range'
p5276
I35267
sS'greets'
p5277
I36225
sS'complimentary'
p5278
I104901
sS'++.'
p5279
I57275
sS'couches'
p5280
I28843
sS'canal'
p5281
I19317
sS'impressed'
p5282
I107490
sS'whims'
p5283
I88881
sS'question'
p5284
I76924
sS'long'
p5285
I106392
sS'oevres'
p5286
I49418
sS'conceivable'
p5287
I79653
sS'mundane'
p5288
I71570
sS'girlfriends'
p5289
I83266
sS'glamour'
p5290
I100289
sS'cloth'
p5291
I106249
sS'junior'
p5292
I105596
sS'raising'
p5293
I52132
sS'groupings'
p5294
I13078
sS'consist'
p5295
I108933
sS'ands'
p5296
I95246
sS'highlight'
p5297
I87933
sS'called'
p5298
I99871
sS'freak'
p5299
I87069
sS'worthwhile'
p5300
I52567
sS'associates'
p5301
I97835
sS'crepes'
p5302
I9679
sS'rainbow'
p5303
I2734
sS'lemon'
p5304
I34774
sS'peace'
p5305
I101558
sS'towers'
p5306
I95542
sS'consistenly'
p5307
I6171
sS'nice'
p5308
I109413
sS'understatement'
p5309
I100516
sS'problems'
p5310
I103571
sS'helping'
p5311
I94657
sS'meaning'
p5312
I63776
sS'everone'
p5313
I34396
sS'allowing'
p5314
I66816
sS'housekeepers'
p5315
I86445
sS'amabassador'
p5316
I70741
sS'happier'
p5317
I78708
sS'departs'
p5318
I27740
sS'weights'
p5319
I106165
sS'weighty'
p5320
I43141
sS'once'
p5321
I107213
sS'windy'
p5322
I108754
sS'issues'
p5323
I107935
sS'disposal'
p5324
I96335
sS'languages'
p5325
I61920
sS'include'
p5326
I100652
sS'waiters'
p5327
I91921
sS'wished'
p5328
I100681
sS'bedrooms'
p5329
I57121
sS'drinking'
p5330
I65675
sS'paraphanelia'
p5331
I19196
sS'deals'
p5332
I105273
sS'demonstrated'
p5333
I106299
sS'dealt'
p5334
I107045
sS'friendliness'
p5335
I95335
sS'noted'
p5336
I56458
sS'concluded'
p5337
I102547
sS'someday'
p5338
I15245
sS'smaller'
p5339
I80726
sS'goodies'
p5340
I17129
sS'traveling'
p5341
I107461
sS'reunion'
p5342
I23927
sS'folk'
p5343
I724
sS'unavailable'
p5344
I11305
sS'boutqiue'
p5345
I5472
sS'waiting'
p5346
I98174
sS'hyatts'
p5347
I30561
sS'garishness'
p5348
I79830
sS'can'
p5349
I108798
sS'chose'
p5350
I108386
sS'degree'
p5351
I15557
sS'slated'
p5352
I51815
sS'desired'
p5353
I81809
sS'explore'
p5354
I62992
sS'gumps'
p5355
I42134
sS'separation'
p5356
I27872
sS'sexy'
p5357
I60207
sS'settling'
p5358
I83754
sS'metro'
p5359
I47990
sS'larger'
p5360
I106756
sS'shades'
p5361
I4704
sS'leaving'
p5362
I105956
sS'pretentiousness'
p5363
I49591
sS'apple'
p5364
I35095
sS'shoved'
p5365
I104329
sS'lodging'
p5366
I78436
sS'boasts'
p5367
I106157
sS'use'
p5368
I109225
sS'fee'
p5369
I92299
sS'feb'
p5370
I1309
sS'usa'
p5371
I39774
sS'iced'
p5372
I5723
sS'few'
p5373
I107598
sS'bitterly'
p5374
I48466
sS'sort'
p5375
I45842
sS'impress'
p5376
I97628
sS'chichi'
p5377
I70732
sS'connie'
p5378
I36217
sS'women'
p5379
I45986
sS'wtih'
p5380
I1613
sS'unsurpassable'
p5381
I104414
sS'anywhere'
p5382
I107992
sS'tap'
p5383
I29815
sS'spaffina'
p5384
I69296
sS'dripping'
p5385
I104086
sS'carrot'
p5386
I87881
sS'hilton'
p5387
I109287
sS'something'
p5388
I109046
sS'tab'
p5389
I56512
sS'spa'
p5390
I103945
sS'tan'
p5391
I85919
sS'united'
p5392
I56381
sS'sit'
p5393
I65393
sS'cardio'
p5394
I106168
sS'six'
p5395
I50883
sS'instead'
p5396
I103592
sS'toddler'
p5397
I17856
sS'panic'
p5398
I73209
sS'tension'
p5399
I85063
sS'attend'
p5400
I107410
sS'defenitely'
p5401
I30404
sS'daycare'
p5402
I68963
sS'light'
p5403
I25478
sS'honestly'
p5404
I97853
sS'martini'
p5405
I93198
sS'%)'
p5406
I52135
sS'%!'
p5407
I52128
sS'knowledgable'
p5408
I69233
sS'whilst'
p5409
I18959
sS'mojito'
p5410
I77526
sS'130'
p5411
I56465
sS'looks'
p5412
I93528
sS'conceriage'
p5413
I10672
sS'139'
p5414
I7279
sS'superior'
p5415
I108923
sS'nostalgia'
p5416
I15997
sS'choose'
p5417
I101568
sS'orange'
p5418
I48047
sS'covered'
p5419
I68153
sS'holiday'
p5420
I38361
sS'crowds'
p5421
I103607
sS'kraemer'
p5422
I46966
sS'flew'
p5423
I92746
sS'invitations'
p5424
I66628
sS'profound'
p5425
I106301
sS'enviable'
p5426
I79688
sS'billy'
p5427
I93794
sS'bentley'
p5428
I10947
sS'88'
p5429
I44230
sS'89'
p5430
I43428
sS'our'
p5431
I109478
sS'80'
p5432
I46481
sS'out'
p5433
I108720
sS'ballroom'
p5434
I98244
sS'thrifty'
p5435
I17771
sS'disapointed'
p5436
I3014
sS'ipod'
p5437
I107120
sS'promptly'
p5438
I99066
sS'vacations'
p5439
I78420
sS'g'
p5440
I71374
sS'fitzpatrick'
p5441
I12518
sS'conversation'
p5442
I79382
sS'filenes'
p5443
I35087
sS'locating'
p5444
I23903
sS'bouquet'
p5445
I46380
sS'echo'
p5446
I3772
sS'gallet'
p5447
I10219
sS'priority'
p5448
I103350
sS'their'
p5449
I108807
sS'1500'
p5450
I83900
sS'1508'
p5451
I22004
sS'shelf'
p5452
I106763
sS'july'
p5453
I89260
sS'boring'
p5454
I96582
sS'discriminating'
p5455
I97578
sS'alerted'
p5456
I49012
sS'afraid'
p5457
I75983
sS'angle'
p5458
I75221
sS'allergies'
p5459
I84488
sS'oozing'
p5460
I92362
sS'bagel'
p5461
I39074
sS'which'
p5462
I108596
sS'centre'
p5463
I103243
sS'who'
p5464
I109367
sS'class'
p5465
I108921
sS'refreshing'
p5466
I69173
sS'neighboring'
p5467
I25025
sS'looked'
p5468
I107525
sS'strawberries'
p5469
I65279
sS'withiin'
p5470
I27715
sS'chances'
p5471
I89934
sS'stove'
p5472
I90024
sS'tagged'
p5473
I61040
sS'planning'
p5474
I104519
sS'chicken'
p5475
I57408
sS'pleased'
p5476
I105496
sS'filmed'
p5477
I2576
sS'combo'
p5478
I16811
sS'local'
p5479
I106880
sS'watching'
p5480
I87264
sS'midnight'
p5481
I66126
sS'ones'
p5482
I87620
sS'cubs'
p5483
I75643
sS'words'
p5484
I75170
sS'spur'
p5485
I27404
sS'aroufn'
p5486
I23894
sS'married'
p5487
I93742
sS'view'
p5488
I107669
sS'europe'
p5489
I107927
sS'fantastically'
p5490
I67892
sS'detatched'
p5491
I90837
sS'closer'
p5492
I55645
sS'closes'
p5493
I55238
sS'closet'
p5494
I59284
sS'superb'
p5495
I106875
sS'closed'
p5496
I48331
sS'guestrooms'
p5497
I38301
sS'frustrated'
p5498
I29135
sS'bought'
p5499
I79539
sS'ability'
p5500
I104492
sS'bloomingdales'
p5501
I96839
sS'joy'
p5502
I105256
sS'beverages'
p5503
I88936
sS'amex'
p5504
I43344
sS'job'
p5505
I90748
sS'joe'
p5506
I24520
sS'spoil'
p5507
I7710
sS'swift'
p5508
I4124
sS'april'
p5509
I9151
sS'grain'
p5510
I102698
sS'canopy'
p5511
I40683
sS'safely'
p5512
I67416
sS'grounds'
p5513
I74829
sS'wall'
p5514
I101540
sS'walk'
p5515
I108703
sS'respect'
p5516
I106327
sS'.--'
p5517
I76018
sS'decent'
p5518
I100176
sS'730'
p5519
I49927
sS'penny'
p5520
I82024
sS'nickel'
p5521
I62139
sS'painted'
p5522
I38730
sS'sufficient'
p5523
I63982
sS'crappy'
p5524
I78397
sS'hmm'
p5525
I68316
sS'ensuring'
p5526
I68115
sS'remedied'
p5527
I75916
sS'improved'
p5528
I28155
sS'competitive'
p5529
I104624
sS'unlike'
p5530
I77721
sS'utensils'
p5531
I37254
sS'vanilla'
p5532
I68256
sS'choices'
p5533
I68653
sS'will'
p5534
I109158
sS'stunning'
p5535
I108692
sS'brioches'
p5536
I10267
sS'whirlpool'
p5537
I86074
sS'~'
p5538
I8091
sS'thur'
p5539
I37349
sS'dual'
p5540
I101348
sS'ave'
p5541
I109064
sS'avg'
p5542
I5933
sS'stadiums'
p5543
I72494
sS'waitresses'
p5544
I1729
sS'cross'
p5545
I47830
sS'member'
p5546
I99789
sS'largest'
p5547
I49834
sS'inch'
p5548
I106268
sS'gets'
p5549
I104474
sS'grandeur'
p5550
I15783
sS'difficult'
p5551
I77260
sS'premiere'
p5552
I81855
sS'definately'
p5553
I108759
sS'plesant'
p5554
I91674
sS'student'
p5555
I51075
sS'collar'
p5556
I27997
sS'antipasta'
p5557
I50735
sS'antipasti'
p5558
I49424
sS'unpacked'
p5559
I98088
sS'realised'
p5560
I104254
sS'lightbulb'
p5561
I55818
sS'rocket'
p5562
I103066
sS'half'
p5563
I108460
sS'obtain'
p5564
I28567
sS'rocked'
p5565
I91587
sS'downfalls'
p5566
I83861
sS'happiness'
p5567
I95832
sS'supply'
p5568
I26698
sS'sky'
p5569
I105085
sS'discuss'
p5570
I97611
sS'concourse'
p5571
I101890
sS'other'
p5572
I105815
sS'crannies'
p5573
I47710
sS'usage'
p5574
I60323
sS'know'
p5575
I105874
sS'facial'
p5576
I102132
sS'press'
p5577
I52647
sS'redesign'
p5578
I26162
sS'helpful'
p5579
I109415
sS'rituals'
p5580
I27080
sS'james'
p5581
I98280
sS'agents'
p5582
I44903
sS'wonders'
p5583
I81131
sS'exceed'
p5584
I108078
sS'because'
p5585
I109255
sS'shabby'
p5586
I56870
sS'smoothly'
p5587
I107394
sS'elevators'
p5588
I103295
sS'mattresses'
p5589
I67792
sS'scared'
p5590
I41334
sS').'
p5591
I100615
sS'searching'
p5592
I74768
sS'demeanor'
p5593
I94380
sS'116'
p5594
I38499
sS'worthy'
p5595
I86066
sS'lead'
p5596
I11761
sS'leak'
p5597
I38779
sS'leaded'
p5598
I67959
sS'14th'
p5599
I24357
sS'locate'
p5600
I84611
sS'says'
p5601
I104004
sS'obel'
p5602
I42331
sS'pasta'
p5603
I47088
sS'rare'
p5604
I108393
sS'carried'
p5605
I63065
sS'getting'
p5606
I99564
sS'asha'
p5607
I59734
sS'perks'
p5608
I87120
sS'sweat'
p5609
I81626
sS'customizing'
p5610
I68087
sS'pumps'
p5611
I19417
sS'own'
p5612
I108556
sS'polished'
p5613
I78837
sS'travelers'
p5614
I87546
sS'weather'
p5615
I105046
sS'promise'
p5616
I87304
sS'registration'
p5617
I35161
sS'prompted'
p5618
I82698
sS'van'
p5619
I9142
sS'stucture'
p5620
I18607
sS'*'
p5621
I103499
sS'kidding'
p5622
I17504
sS'continental'
p5623
I105008
sS'posters'
p5624
I42875
sS'made'
p5625
I106905
sS'temp'
p5626
I24392
sS'whether'
p5627
I108082
sS'record'
p5628
I25026
sS'below'
p5629
I56255
sS'cake'
p5630
I105571
sS'rickety'
p5631
I96495
sS'intimidating'
p5632
I17281
sS'humbling'
p5633
I84508
sS'inadequate'
p5634
I83141
sS'goodness'
p5635
I101609
sS'avoided'
p5636
I53729
sS'incredible'
p5637
I108777
sS'chocolat'
p5638
I10272
sS'percent'
p5639
I84023
sS'illinois'
p5640
I106121
sS'book'
p5641
I105146
sS'sick'
p5642
I71421
sS'toured'
p5643
I88494
sS'coffees'
p5644
I63265
sS'incredibly'
p5645
I100056
sS'contacting'
p5646
I18701
sS'conclusion'
p5647
I58604
sS'kinds'
p5648
I14948
sS'june'
p5649
I83283
sS'sandwhich'
p5650
I71408
sS'kinda'
p5651
I88
sS'cliff'
p5652
I43186
sS'jewel'
p5653
I36974
sS'intercontintental'
p5654
I105839
s.